Archive member included because of file (symbol)

contiki-redbee-econotag.a(rimeaddr.o)
                              obj_redbee-econotag/contiki-mc1322x-main.o (rimeaddr_copy)
contiki-redbee-econotag.a(nullmac.o)
                              obj_redbee-econotag/contiki-mc1322x-main.o (nullmac_driver)
contiki-redbee-econotag.a(nullrdc.o)
                              obj_redbee-econotag/contiki-mc1322x-main.o (nullrdc_driver)
contiki-redbee-econotag.a(mac.o)
                              contiki-redbee-econotag.a(nullrdc.o) (mac_call_sent_callback)
contiki-redbee-econotag.a(framer-802154.o)
                              contiki-redbee-econotag.a(nullrdc.o) (framer_802154)
contiki-redbee-econotag.a(process.o)
                              obj_redbee-econotag/contiki-mc1322x-main.o (process_init)
contiki-redbee-econotag.a(autostart.o)
                              obj_redbee-econotag/contiki-mc1322x-main.o (autostart_start)
contiki-redbee-econotag.a(serial-line.o)
                              th-12.co (serial_line_init)
contiki-redbee-econotag.a(etimer.o)
                              obj_redbee-econotag/sen.o (etimer_expired)
contiki-redbee-econotag.a(ctimer.o)
                              obj_redbee-econotag/contiki-mc1322x-main.o (ctimer_init)
contiki-redbee-econotag.a(random.o)
                              contiki-redbee-econotag.a(framer-802154.o) (random_rand)
contiki-redbee-econotag.a(ringbuf.o)
                              contiki-redbee-econotag.a(serial-line.o) (ringbuf_init)
contiki-redbee-econotag.a(packetbuf.o)
                              contiki-redbee-econotag.a(framer-802154.o) (packetbuf_hdrreduce)
contiki-redbee-econotag.a(queuebuf.o)
                              contiki-redbee-econotag.a(nullrdc.o) (queuebuf_to_packetbuf)
contiki-redbee-econotag.a(uip6.o)
                              obj_redbee-econotag/contiki-mc1322x-main.o (uip_lladdr)
contiki-redbee-econotag.a(tcpip.o)
                              contiki-redbee-econotag.a(uip6.o) (tcpip_uipcall)
contiki-redbee-econotag.a(uip-icmp6.o)
                              contiki-redbee-econotag.a(uip6.o) (uip_icmp6_echo_request_input)
contiki-redbee-econotag.a(uip-nd6.o)
                              contiki-redbee-econotag.a(uip6.o) (uip_nd6_na_input)
contiki-redbee-econotag.a(sicslowpan.o)
                              obj_redbee-econotag/contiki-mc1322x-main.o (sicslowpan_driver)
contiki-redbee-econotag.a(neighbor-info.o)
                              contiki-redbee-econotag.a(sicslowpan.o) (neighbor_info_packet_received)
contiki-redbee-econotag.a(uip-ds6.o)
                              contiki-redbee-econotag.a(uip-nd6.o) (uip_ds6_defrt_rm)
contiki-redbee-econotag.a(serial-shell.o)
                              th-12.co (serial_shell_init)
contiki-redbee-econotag.a(shell.o)
                              contiki-redbee-econotag.a(serial-shell.o) (shell_input)
contiki-redbee-econotag.a(clock.o)
                              contiki-redbee-econotag.a(etimer.o) (clock_time)
contiki-redbee-econotag.a(button-sensor.o)
                              obj_redbee-econotag/contiki-mc1322x-main.o (button_sensor)
contiki-redbee-econotag.a(sensors.o)
                              contiki-redbee-econotag.a(button-sensor.o) (sensors_changed)
contiki-redbee-econotag.a(watchdog.o)
                              contiki-redbee-econotag.a(sicslowpan.o) (watchdog_periodic)
contiki-redbee-econotag.a(contiki-crm.o)
                              obj_redbee-econotag/contiki-mc1322x-main.o (cal_ring_osc)
contiki-redbee-econotag.a(contiki-maca.o)
                              contiki-redbee-econotag.a(nullrdc.o) (contiki_maca_driver)
contiki-redbee-econotag.a(contiki-misc.o)
                              contiki-redbee-econotag.a(random.o) (srand)
contiki-redbee-econotag.a(leds.o)
                              obj_redbee-econotag/contiki-mc1322x-main.o (leds_init)
contiki-redbee-econotag.a(contiki-uart.o)
                              th-12.co (uart1_set_input)
contiki-redbee-econotag.a(dbg-printf.o)
                              obj_redbee-econotag/shell-th-12.o (printf)
contiki-redbee-econotag.a(strformat.o)
                              contiki-redbee-econotag.a(dbg-printf.o) (format_str_v)
contiki-redbee-econotag.a(adc.o)
                              contiki-redbee-econotag.a(clock.o) (adc_service)
contiki-redbee-econotag.a(gpio-util.o)
                              contiki-redbee-econotag.a(adc.o) (gpio_select_function)
contiki-redbee-econotag.a(maca.o)
                              contiki-redbee-econotag.a(contiki-maca.o) (free_packet)
contiki-redbee-econotag.a(nvm.o)
                              obj_redbee-econotag/contiki-mc1322x-main.o (nvm_detect)
contiki-redbee-econotag.a(uart1.o)
                              obj_redbee-econotag/contiki-mc1322x-main.o (uart1_getc)
contiki-redbee-econotag.a(default_lowleve)
                              obj_redbee-econotag/contiki-mc1322x-main.o (uart1_init)
contiki-redbee-econotag.a(isr.o)
                              obj_redbee-econotag/start.o (irq)
contiki-redbee-econotag.a(rpl-ext-header.)
                              contiki-redbee-econotag.a(uip-icmp6.o) (rpl_invert_header)
contiki-redbee-econotag.a(frame802154.o)
                              contiki-redbee-econotag.a(framer-802154.o) (frame802154_parse)
contiki-redbee-econotag.a(rpl.o)
                              contiki-redbee-econotag.a(tcpip.o) (rpl_init)
contiki-redbee-econotag.a(rpl-dag.o)
                              contiki-redbee-econotag.a(rpl-ext-header.) (rpl_get_instance)
contiki-redbee-econotag.a(rpl-icmp6.o)
                              contiki-redbee-econotag.a(rpl-dag.o) (dao_output)
contiki-redbee-econotag.a(rpl-timers.o)
                              contiki-redbee-econotag.a(rpl-dag.o) (rpl_schedule_dao)
contiki-redbee-econotag.a(rpl-of-etx.o)
                              contiki-redbee-econotag.a(rpl-dag.o) (rpl_of_etx)
contiki-redbee-econotag.a(memb.o)
                              contiki-redbee-econotag.a(queuebuf.o) (memb_alloc)
contiki-redbee-econotag.a(timer.o)
                              contiki-redbee-econotag.a(etimer.o) (timer_reset)
contiki-redbee-econotag.a(list.o)
                              contiki-redbee-econotag.a(ctimer.o) (list_init)
contiki-redbee-econotag.a(stimer.o)
                              contiki-redbee-econotag.a(uip-ds6.o) (stimer_expired)
contiki-redbee-econotag.a(neighbor-attr.o)
                              contiki-redbee-econotag.a(neighbor-info.o) (neighbor_attr_get_data)
contiki-redbee-econotag.a(debug-uart.o)
                              contiki-redbee-econotag.a(dbg-printf.o) (dbg_send_bytes)
contiki-redbee-econotag.a(leds-arch.o)
                              contiki-redbee-econotag.a(leds.o) (leds_arch_init)
contiki-redbee-econotag.a(uart2.o)
                              contiki-redbee-econotag.a(default_lowleve) (u2_tx_head)
/home/muffin/redwire/arm-2008q3/bin/../lib/gcc/arm-none-eabi/4.3.2/libgcc.a(_udivsi3.o)
                              contiki-redbee-econotag.a(tcpip.o) (__aeabi_uidiv)
/home/muffin/redwire/arm-2008q3/bin/../lib/gcc/arm-none-eabi/4.3.2/libgcc.a(_divsi3.o)
                              obj_redbee-econotag/contiki-mc1322x-main.o (__aeabi_idiv)
/home/muffin/redwire/arm-2008q3/bin/../lib/gcc/arm-none-eabi/4.3.2/libgcc.a(_dvmd_tls.o)
                              /home/muffin/redwire/arm-2008q3/bin/../lib/gcc/arm-none-eabi/4.3.2/libgcc.a(_udivsi3.o) (__aeabi_idiv0)
/home/muffin/redwire/arm-2008q3/bin/../lib/gcc/arm-none-eabi/4.3.2/libgcc.a(_aeabi_uldivmod.o)
                              contiki-redbee-econotag.a(strformat.o) (__aeabi_uldivmod)
/home/muffin/redwire/arm-2008q3/bin/../lib/gcc/arm-none-eabi/4.3.2/libgcc.a(bpabi.o)
                              /home/muffin/redwire/arm-2008q3/bin/../lib/gcc/arm-none-eabi/4.3.2/libgcc.a(_aeabi_uldivmod.o) (__gnu_uldivmod_helper)
/home/muffin/redwire/arm-2008q3/bin/../lib/gcc/arm-none-eabi/4.3.2/libgcc.a(_divdi3.o)
                              /home/muffin/redwire/arm-2008q3/bin/../lib/gcc/arm-none-eabi/4.3.2/libgcc.a(bpabi.o) (__divdi3)
/home/muffin/redwire/arm-2008q3/bin/../lib/gcc/arm-none-eabi/4.3.2/libgcc.a(_udivdi3.o)
                              /home/muffin/redwire/arm-2008q3/bin/../lib/gcc/arm-none-eabi/4.3.2/libgcc.a(bpabi.o) (__udivdi3)
/home/muffin/redwire/arm-2008q3/bin/../lib/gcc/arm-none-eabi/4.3.2/libgcc.a(_clz.o)
                              /home/muffin/redwire/arm-2008q3/bin/../lib/gcc/arm-none-eabi/4.3.2/libgcc.a(_divdi3.o) (__clz_tab)
/home/muffin/redwire/arm-2008q3/bin/../lib/gcc/arm-none-eabi/4.3.2/../../../../arm-none-eabi/lib/libc.a(lib_a-ctype_.o)
                              contiki-redbee-econotag.a(shell.o) (__ctype_ptr__)
/home/muffin/redwire/arm-2008q3/bin/../lib/gcc/arm-none-eabi/4.3.2/../../../../arm-none-eabi/lib/libc.a(lib_a-memcmp.o)
                              obj_redbee-econotag/contiki-mc1322x-main.o (memcmp)
/home/muffin/redwire/arm-2008q3/bin/../lib/gcc/arm-none-eabi/4.3.2/../../../../arm-none-eabi/lib/libc.a(lib_a-memcpy.o)
                              obj_redbee-econotag/contiki-mc1322x-main.o (memcpy)
/home/muffin/redwire/arm-2008q3/bin/../lib/gcc/arm-none-eabi/4.3.2/../../../../arm-none-eabi/lib/libc.a(lib_a-memmove.o)
                              contiki-redbee-econotag.a(uip6.o) (memmove)
/home/muffin/redwire/arm-2008q3/bin/../lib/gcc/arm-none-eabi/4.3.2/../../../../arm-none-eabi/lib/libc.a(lib_a-memset.o)
                              contiki-redbee-econotag.a(framer-802154.o) (memset)
/home/muffin/redwire/arm-2008q3/bin/../lib/gcc/arm-none-eabi/4.3.2/../../../../arm-none-eabi/lib/libc.a(lib_a-strchr.o)
                              contiki-redbee-econotag.a(shell.o) (strchr)
/home/muffin/redwire/arm-2008q3/bin/../lib/gcc/arm-none-eabi/4.3.2/../../../../arm-none-eabi/lib/libc.a(lib_a-strcmp.o)
                              contiki-redbee-econotag.a(shell.o) (strcmp)
/home/muffin/redwire/arm-2008q3/bin/../lib/gcc/arm-none-eabi/4.3.2/../../../../arm-none-eabi/lib/libc.a(lib_a-strlen.o)
                              contiki-redbee-econotag.a(serial-shell.o) (strlen)
/home/muffin/redwire/arm-2008q3/bin/../lib/gcc/arm-none-eabi/4.3.2/../../../../arm-none-eabi/lib/libc.a(lib_a-strncmp.o)
                              contiki-redbee-econotag.a(shell.o) (strncmp)

Discarded input sections

 .text          0x00000000        0x0 th-12.co
 .data          0x00000000        0x0 th-12.co
 .bss           0x00000000        0x0 th-12.co
 .text          0x00000000        0x0 obj_redbee-econotag/shell-th-12.o
 .data          0x00000000        0x0 obj_redbee-econotag/shell-th-12.o
 .bss           0x00000000        0x0 obj_redbee-econotag/shell-th-12.o
 .text          0x00000000        0x0 obj_redbee-econotag/sen.o
 .data          0x00000000        0x0 obj_redbee-econotag/sen.o
 .bss           0x00000000        0x0 obj_redbee-econotag/sen.o
 .text          0x00000000        0x0 obj_redbee-econotag/contiki-mc1322x-main.o
 .data          0x00000000        0x0 obj_redbee-econotag/contiki-mc1322x-main.o
 .bss           0x00000000        0x0 obj_redbee-econotag/contiki-mc1322x-main.o
 .text.oui_to_eui64
                0x00000000        0x0 obj_redbee-econotag/contiki-mc1322x-main.o
 .text.uip_log  0x00000000        0x0 obj_redbee-econotag/contiki-mc1322x-main.o
 .text          0x00000000        0x0 obj_redbee-econotag/start.o
 .data          0x00000000        0x0 obj_redbee-econotag/start.o
 .bss           0x00000000        0x0 obj_redbee-econotag/start.o
 .text          0x00000000        0x0 contiki-redbee-econotag.a(rimeaddr.o)
 .data          0x00000000        0x0 contiki-redbee-econotag.a(rimeaddr.o)
 .bss           0x00000000        0x0 contiki-redbee-econotag.a(rimeaddr.o)
 .text          0x00000000        0x0 contiki-redbee-econotag.a(nullmac.o)
 .data          0x00000000        0x0 contiki-redbee-econotag.a(nullmac.o)
 .bss           0x00000000        0x0 contiki-redbee-econotag.a(nullmac.o)
 .text          0x00000000        0x0 contiki-redbee-econotag.a(nullrdc.o)
 .data          0x00000000        0x0 contiki-redbee-econotag.a(nullrdc.o)
 .bss           0x00000000        0x0 contiki-redbee-econotag.a(nullrdc.o)
 .text          0x00000000        0x0 contiki-redbee-econotag.a(mac.o)
 .data          0x00000000        0x0 contiki-redbee-econotag.a(mac.o)
 .bss           0x00000000        0x0 contiki-redbee-econotag.a(mac.o)
 .text          0x00000000        0x0 contiki-redbee-econotag.a(framer-802154.o)
 .data          0x00000000        0x0 contiki-redbee-econotag.a(framer-802154.o)
 .bss           0x00000000        0x0 contiki-redbee-econotag.a(framer-802154.o)
 .text          0x00000000        0x0 contiki-redbee-econotag.a(process.o)
 .data          0x00000000        0x0 contiki-redbee-econotag.a(process.o)
 .bss           0x00000000        0x0 contiki-redbee-econotag.a(process.o)
 .text.process_nevents
                0x00000000        0x0 contiki-redbee-econotag.a(process.o)
 .text          0x00000000        0x0 contiki-redbee-econotag.a(autostart.o)
 .data          0x00000000        0x0 contiki-redbee-econotag.a(autostart.o)
 .bss           0x00000000        0x0 contiki-redbee-econotag.a(autostart.o)
 .text.autostart_exit
                0x00000000        0x0 contiki-redbee-econotag.a(autostart.o)
 .text          0x00000000        0x0 contiki-redbee-econotag.a(serial-line.o)
 .data          0x00000000        0x0 contiki-redbee-econotag.a(serial-line.o)
 .bss           0x00000000        0x0 contiki-redbee-econotag.a(serial-line.o)
 .text          0x00000000        0x0 contiki-redbee-econotag.a(etimer.o)
 .data          0x00000000        0x0 contiki-redbee-econotag.a(etimer.o)
 .bss           0x00000000        0x0 contiki-redbee-econotag.a(etimer.o)
 .text.etimer_start_time
                0x00000000        0x0 contiki-redbee-econotag.a(etimer.o)
 .text.etimer_adjust
                0x00000000        0x0 contiki-redbee-econotag.a(etimer.o)
 .text          0x00000000        0x0 contiki-redbee-econotag.a(ctimer.o)
 .data          0x00000000        0x0 contiki-redbee-econotag.a(ctimer.o)
 .bss           0x00000000        0x0 contiki-redbee-econotag.a(ctimer.o)
 .text.ctimer_expired
                0x00000000        0x0 contiki-redbee-econotag.a(ctimer.o)
 .text.ctimer_restart
                0x00000000        0x0 contiki-redbee-econotag.a(ctimer.o)
 .text          0x00000000        0x0 contiki-redbee-econotag.a(random.o)
 .data          0x00000000        0x0 contiki-redbee-econotag.a(random.o)
 .bss           0x00000000        0x0 contiki-redbee-econotag.a(random.o)
 .text.random_init
                0x00000000        0x0 contiki-redbee-econotag.a(random.o)
 .text          0x00000000        0x0 contiki-redbee-econotag.a(ringbuf.o)
 .data          0x00000000        0x0 contiki-redbee-econotag.a(ringbuf.o)
 .bss           0x00000000        0x0 contiki-redbee-econotag.a(ringbuf.o)
 .text.ringbuf_size
                0x00000000        0x0 contiki-redbee-econotag.a(ringbuf.o)
 .text.ringbuf_elements
                0x00000000        0x0 contiki-redbee-econotag.a(ringbuf.o)
 .text          0x00000000        0x0 contiki-redbee-econotag.a(packetbuf.o)
 .data          0x00000000        0x0 contiki-redbee-econotag.a(packetbuf.o)
 .bss           0x00000000        0x0 contiki-redbee-econotag.a(packetbuf.o)
 .text.packetbuf_clear_hdr
                0x00000000        0x0 contiki-redbee-econotag.a(packetbuf.o)
 .text.packetbuf_hdr_remove
                0x00000000        0x0 contiki-redbee-econotag.a(packetbuf.o)
 .text.packetbuf_compact
                0x00000000        0x0 contiki-redbee-econotag.a(packetbuf.o)
 .text.packetbuf_reference
                0x00000000        0x0 contiki-redbee-econotag.a(packetbuf.o)
 .text          0x00000000        0x0 contiki-redbee-econotag.a(queuebuf.o)
 .data          0x00000000        0x0 contiki-redbee-econotag.a(queuebuf.o)
 .bss           0x00000000        0x0 contiki-redbee-econotag.a(queuebuf.o)
 .text.queuebuf_datalen
                0x00000000        0x0 contiki-redbee-econotag.a(queuebuf.o)
 .text.queuebuf_addr
                0x00000000        0x0 contiki-redbee-econotag.a(queuebuf.o)
 .text.queuebuf_attr
                0x00000000        0x0 contiki-redbee-econotag.a(queuebuf.o)
 .text.queuebuf_debug_print
                0x00000000        0x0 contiki-redbee-econotag.a(queuebuf.o)
 .text.queuebuf_dataptr
                0x00000000        0x0 contiki-redbee-econotag.a(queuebuf.o)
 .text.queuebuf_update_attr_from_packetbuf
                0x00000000        0x0 contiki-redbee-econotag.a(queuebuf.o)
 .text          0x00000000        0x0 contiki-redbee-econotag.a(uip6.o)
 .data          0x00000000        0x0 contiki-redbee-econotag.a(uip6.o)
 .bss           0x00000000        0x0 contiki-redbee-econotag.a(uip6.o)
 .text.uip_listen
                0x00000000        0x0 contiki-redbee-econotag.a(uip6.o)
 .text.uip_connect
                0x00000000        0x0 contiki-redbee-econotag.a(uip6.o)
 .text.uip_chksum
                0x00000000        0x0 contiki-redbee-econotag.a(uip6.o)
 .text.uip_send
                0x00000000        0x0 contiki-redbee-econotag.a(uip6.o)
 .text.uip_udp_new
                0x00000000        0x0 contiki-redbee-econotag.a(uip6.o)
 .text          0x00000000        0x0 contiki-redbee-econotag.a(tcpip.o)
 .data          0x00000000        0x0 contiki-redbee-econotag.a(tcpip.o)
 .bss           0x00000000        0x0 contiki-redbee-econotag.a(tcpip.o)
 .text.tcp_attach
                0x00000000        0x0 contiki-redbee-econotag.a(tcpip.o)
 .text.udp_attach
                0x00000000        0x0 contiki-redbee-econotag.a(tcpip.o)
 .text.tcp_unlisten
                0x00000000        0x0 contiki-redbee-econotag.a(tcpip.o)
 .text.tcpip_poll_tcp
                0x00000000        0x0 contiki-redbee-econotag.a(tcpip.o)
 .text.tcpip_poll_udp
                0x00000000        0x0 contiki-redbee-econotag.a(tcpip.o)
 .text.udp_new  0x00000000        0x0 contiki-redbee-econotag.a(tcpip.o)
 .text.udp_broadcast_new
                0x00000000        0x0 contiki-redbee-econotag.a(tcpip.o)
 .text.tcp_listen
                0x00000000        0x0 contiki-redbee-econotag.a(tcpip.o)
 .text.tcp_connect
                0x00000000        0x0 contiki-redbee-econotag.a(tcpip.o)
 .bss.i.4646    0x00000000        0x0 contiki-redbee-econotag.a(tcpip.o)
 .bss.i.4633    0x00000000        0x0 contiki-redbee-econotag.a(tcpip.o)
 .text          0x00000000        0x0 contiki-redbee-econotag.a(uip-icmp6.o)
 .data          0x00000000        0x0 contiki-redbee-econotag.a(uip-icmp6.o)
 .bss           0x00000000        0x0 contiki-redbee-econotag.a(uip-icmp6.o)
 .text          0x00000000        0x0 contiki-redbee-econotag.a(uip-nd6.o)
 .data          0x00000000        0x0 contiki-redbee-econotag.a(uip-nd6.o)
 .bss           0x00000000        0x0 contiki-redbee-econotag.a(uip-nd6.o)
 .text          0x00000000        0x0 contiki-redbee-econotag.a(sicslowpan.o)
 .data          0x00000000        0x0 contiki-redbee-econotag.a(sicslowpan.o)
 .bss           0x00000000        0x0 contiki-redbee-econotag.a(sicslowpan.o)
 .text.rime_sniffer_add
                0x00000000        0x0 contiki-redbee-econotag.a(sicslowpan.o)
 .text.rime_sniffer_remove
                0x00000000        0x0 contiki-redbee-econotag.a(sicslowpan.o)
 .text          0x00000000        0x0 contiki-redbee-econotag.a(neighbor-info.o)
 .data          0x00000000        0x0 contiki-redbee-econotag.a(neighbor-info.o)
 .bss           0x00000000        0x0 contiki-redbee-econotag.a(neighbor-info.o)
 .text.neighbor_info_get_metric
                0x00000000        0x0 contiki-redbee-econotag.a(neighbor-info.o)
 .text          0x00000000        0x0 contiki-redbee-econotag.a(uip-ds6.o)
 .data          0x00000000        0x0 contiki-redbee-econotag.a(uip-ds6.o)
 .bss           0x00000000        0x0 contiki-redbee-econotag.a(uip-ds6.o)
 .text.uip_ds6_prefix_rm
                0x00000000        0x0 contiki-redbee-econotag.a(uip-ds6.o)
 .text.uip_ds6_get_global
                0x00000000        0x0 contiki-redbee-econotag.a(uip-ds6.o)
 .text.uip_ds6_aaddr_rm
                0x00000000        0x0 contiki-redbee-econotag.a(uip-ds6.o)
 .text.uip_ds6_nbr_ll_lookup
                0x00000000        0x0 contiki-redbee-econotag.a(uip-ds6.o)
 .text.uip_ds6_aaddr_lookup
                0x00000000        0x0 contiki-redbee-econotag.a(uip-ds6.o)
 .text.uip_ds6_aaddr_add
                0x00000000        0x0 contiki-redbee-econotag.a(uip-ds6.o)
 .text.uip_ds6_prefix_lookup
                0x00000000        0x0 contiki-redbee-econotag.a(uip-ds6.o)
 .bss.locaaddr  0x00000000        0x0 contiki-redbee-econotag.a(uip-ds6.o)
 .bss.uip_ds6_timer_ra
                0x00000000        0x0 contiki-redbee-econotag.a(uip-ds6.o)
 .text          0x00000000        0x0 contiki-redbee-econotag.a(serial-shell.o)
 .data          0x00000000        0x0 contiki-redbee-econotag.a(serial-shell.o)
 .bss           0x00000000        0x0 contiki-redbee-econotag.a(serial-shell.o)
 .text          0x00000000        0x0 contiki-redbee-econotag.a(shell.o)
 .data          0x00000000        0x0 contiki-redbee-econotag.a(shell.o)
 .bss           0x00000000        0x0 contiki-redbee-econotag.a(shell.o)
 .text.shell_strtolong
                0x00000000        0x0 contiki-redbee-econotag.a(shell.o)
 .text.shell_unregister_command
                0x00000000        0x0 contiki-redbee-econotag.a(shell.o)
 .text.shell_output
                0x00000000        0x0 contiki-redbee-econotag.a(shell.o)
 .text.shell_stop
                0x00000000        0x0 contiki-redbee-econotag.a(shell.o)
 .text.shell_quit
                0x00000000        0x0 contiki-redbee-econotag.a(shell.o)
 .text.shell_start
                0x00000000        0x0 contiki-redbee-econotag.a(shell.o)
 .data.shell_banner_text
                0x00000000        0x0 contiki-redbee-econotag.a(shell.o)
 .text          0x00000000        0x0 contiki-redbee-econotag.a(clock.o)
 .data          0x00000000        0x0 contiki-redbee-econotag.a(clock.o)
 .bss           0x00000000        0x0 contiki-redbee-econotag.a(clock.o)
 .text.clock_wait
                0x00000000        0x0 contiki-redbee-econotag.a(clock.o)
 .text.clock_delay_usec
                0x00000000        0x0 contiki-redbee-econotag.a(clock.o)
 .text.clock_delay_msec
                0x00000000        0x0 contiki-redbee-econotag.a(clock.o)
 .text.clock_delay
                0x00000000        0x0 contiki-redbee-econotag.a(clock.o)
 .text.clock_adjust_ticks
                0x00000000        0x0 contiki-redbee-econotag.a(clock.o)
 .text          0x00000000        0x0 contiki-redbee-econotag.a(button-sensor.o)
 .data          0x00000000        0x0 contiki-redbee-econotag.a(button-sensor.o)
 .bss           0x00000000        0x0 contiki-redbee-econotag.a(button-sensor.o)
 .text          0x00000000        0x0 contiki-redbee-econotag.a(sensors.o)
 .data          0x00000000        0x0 contiki-redbee-econotag.a(sensors.o)
 .bss           0x00000000        0x0 contiki-redbee-econotag.a(sensors.o)
 .text.sensors_first
                0x00000000        0x0 contiki-redbee-econotag.a(sensors.o)
 .text.sensors_next
                0x00000000        0x0 contiki-redbee-econotag.a(sensors.o)
 .text.sensors_find
                0x00000000        0x0 contiki-redbee-econotag.a(sensors.o)
 .text          0x00000000        0x0 contiki-redbee-econotag.a(watchdog.o)
 .data          0x00000000        0x0 contiki-redbee-econotag.a(watchdog.o)
 .bss           0x00000000        0x0 contiki-redbee-econotag.a(watchdog.o)
 .text.watchdog_init
                0x00000000        0x0 contiki-redbee-econotag.a(watchdog.o)
 .text.watchdog_start
                0x00000000        0x0 contiki-redbee-econotag.a(watchdog.o)
 .text.watchdog_stop
                0x00000000        0x0 contiki-redbee-econotag.a(watchdog.o)
 .text.watchdog_reboot
                0x00000000        0x0 contiki-redbee-econotag.a(watchdog.o)
 .text          0x00000000        0x0 contiki-redbee-econotag.a(contiki-crm.o)
 .data          0x00000000        0x0 contiki-redbee-econotag.a(contiki-crm.o)
 .bss           0x00000000        0x0 contiki-redbee-econotag.a(contiki-crm.o)
 .text.sleep    0x00000000        0x0 contiki-redbee-econotag.a(contiki-crm.o)
 .text.enable_32khz_xtal
                0x00000000        0x0 contiki-redbee-econotag.a(contiki-crm.o)
 .bss.rtc_count.4038
                0x00000000        0x0 contiki-redbee-econotag.a(contiki-crm.o)
 .text          0x00000000        0x0 contiki-redbee-econotag.a(contiki-maca.o)
 .data          0x00000000        0x0 contiki-redbee-econotag.a(contiki-maca.o)
 .bss           0x00000000        0x0 contiki-redbee-econotag.a(contiki-maca.o)
 .text          0x00000000        0x0 contiki-redbee-econotag.a(contiki-misc.o)
 .data          0x00000000        0x0 contiki-redbee-econotag.a(contiki-misc.o)
 .bss           0x00000000        0x0 contiki-redbee-econotag.a(contiki-misc.o)
 .text.raise    0x00000000        0x0 contiki-redbee-econotag.a(contiki-misc.o)
 .text.srand    0x00000000        0x0 contiki-redbee-econotag.a(contiki-misc.o)
 .text._sbrk    0x00000000        0x0 contiki-redbee-econotag.a(contiki-misc.o)
 .bss.heap.5078
                0x00000000        0x0 contiki-redbee-econotag.a(contiki-misc.o)
 .text          0x00000000        0x0 contiki-redbee-econotag.a(leds.o)
 .data          0x00000000        0x0 contiki-redbee-econotag.a(leds.o)
 .bss           0x00000000        0x0 contiki-redbee-econotag.a(leds.o)
 .text.show_leds
                0x00000000        0x0 contiki-redbee-econotag.a(leds.o)
 .text.leds_invert
                0x00000000        0x0 contiki-redbee-econotag.a(leds.o)
 .text.leds_toggle
                0x00000000        0x0 contiki-redbee-econotag.a(leds.o)
 .text.leds_off
                0x00000000        0x0 contiki-redbee-econotag.a(leds.o)
 .text.leds_on  0x00000000        0x0 contiki-redbee-econotag.a(leds.o)
 .text.leds_get
                0x00000000        0x0 contiki-redbee-econotag.a(leds.o)
 .text.leds_blink
                0x00000000        0x0 contiki-redbee-econotag.a(leds.o)
 .text          0x00000000        0x0 contiki-redbee-econotag.a(contiki-uart.o)
 .data          0x00000000        0x0 contiki-redbee-econotag.a(contiki-uart.o)
 .bss           0x00000000        0x0 contiki-redbee-econotag.a(contiki-uart.o)
 .text          0x00000000        0x0 contiki-redbee-econotag.a(dbg-printf.o)
 .data          0x00000000        0x0 contiki-redbee-econotag.a(dbg-printf.o)
 .bss           0x00000000        0x0 contiki-redbee-econotag.a(dbg-printf.o)
 .text          0x00000000        0x0 contiki-redbee-econotag.a(strformat.o)
 .data          0x00000000        0x0 contiki-redbee-econotag.a(strformat.o)
 .bss           0x00000000        0x0 contiki-redbee-econotag.a(strformat.o)
 .text.format_str
                0x00000000        0x0 contiki-redbee-econotag.a(strformat.o)
 .text          0x00000000        0x0 contiki-redbee-econotag.a(adc.o)
 .data          0x00000000        0x0 contiki-redbee-econotag.a(adc.o)
 .bss           0x00000000        0x0 contiki-redbee-econotag.a(adc.o)
 .text.ADC_flush
                0x00000000        0x0 contiki-redbee-econotag.a(adc.o)
 .text.ADC_READ
                0x00000000        0x0 contiki-redbee-econotag.a(adc.o)
 .text          0x00000000        0x0 contiki-redbee-econotag.a(gpio-util.o)
 .data          0x00000000        0x0 contiki-redbee-econotag.a(gpio-util.o)
 .bss           0x00000000        0x0 contiki-redbee-econotag.a(gpio-util.o)
 .text.gpio_set
                0x00000000        0x0 contiki-redbee-econotag.a(gpio-util.o)
 .text.gpio_reset
                0x00000000        0x0 contiki-redbee-econotag.a(gpio-util.o)
 .text.gpio_read
                0x00000000        0x0 contiki-redbee-econotag.a(gpio-util.o)
 .text          0x00000000        0x0 contiki-redbee-econotag.a(maca.o)
 .data          0x00000000        0x0 contiki-redbee-econotag.a(maca.o)
 .bss           0x00000000        0x0 contiki-redbee-econotag.a(maca.o)
 .text.bad_packet_bounds
                0x00000000        0x0 contiki-redbee-econotag.a(maca.o)
 .text.count_packets
                0x00000000        0x0 contiki-redbee-econotag.a(maca.o)
 .text.bound_check
                0x00000000        0x0 contiki-redbee-econotag.a(maca.o)
 .text.free_all_packets
                0x00000000        0x0 contiki-redbee-econotag.a(maca.o)
 .text.init_phy
                0x00000000        0x0 contiki-redbee-econotag.a(maca.o)
 .text.reset_maca
                0x00000000        0x0 contiki-redbee-econotag.a(maca.o)
 .text.flyback_init
                0x00000000        0x0 contiki-redbee-econotag.a(maca.o)
 .text.maca_off
                0x00000000        0x0 contiki-redbee-econotag.a(maca.o)
 .text.maca_on  0x00000000        0x0 contiki-redbee-econotag.a(maca.o)
 .text.get_ctov
                0x00000000        0x0 contiki-redbee-econotag.a(maca.o)
 .text.set_demodulator_type
                0x00000000        0x0 contiki-redbee-econotag.a(maca.o)
 .text.exec_init_entry
                0x00000000        0x0 contiki-redbee-econotag.a(maca.o)
 .text.init_from_flash
                0x00000000        0x0 contiki-redbee-econotag.a(maca.o)
 .text.radio_init
                0x00000000        0x0 contiki-redbee-econotag.a(maca.o)
 .text.maca_init
                0x00000000        0x0 contiki-redbee-econotag.a(maca.o)
 .text.Print_Packets
                0x00000000        0x0 contiki-redbee-econotag.a(maca.o)
 .rodata.addr_cal5
                0x00000000        0x0 contiki-redbee-econotag.a(maca.o)
 .rodata.addr_seq2
                0x00000000        0x0 contiki-redbee-econotag.a(maca.o)
 .rodata.addr_seq1
                0x00000000        0x0 contiki-redbee-econotag.a(maca.o)
 .rodata.addr_cal3_seq1
                0x00000000        0x0 contiki-redbee-econotag.a(maca.o)
 .rodata.addr_cal3_seq3
                0x00000000        0x0 contiki-redbee-econotag.a(maca.o)
 .rodata.data_reg_rep
                0x00000000        0x0 contiki-redbee-econotag.a(maca.o)
 .rodata.addr_cal3_seq2
                0x00000000        0x0 contiki-redbee-econotag.a(maca.o)
 .rodata.data_seq1
                0x00000000        0x0 contiki-redbee-econotag.a(maca.o)
 .rodata.data_seq2
                0x00000000        0x0 contiki-redbee-econotag.a(maca.o)
 .rodata.data_cal5
                0x00000000        0x0 contiki-redbee-econotag.a(maca.o)
 .bss.packet_pool
                0x00000000        0x0 contiki-redbee-econotag.a(maca.o)
 .rodata.data_cal3_seq1
                0x00000000        0x0 contiki-redbee-econotag.a(maca.o)
 .rodata.addr_reg_rep
                0x00000000        0x0 contiki-redbee-econotag.a(maca.o)
 .bss.ram_values
                0x00000000        0x0 contiki-redbee-econotag.a(maca.o)
 .rodata.str1.1
                0x00000000        0x0 contiki-redbee-econotag.a(maca.o)
 .rodata.data_cal3_seq2
                0x00000000        0x0 contiki-redbee-econotag.a(maca.o)
 .rodata.data_cal3_seq3
                0x00000000        0x0 contiki-redbee-econotag.a(maca.o)
 .text          0x00000000        0x0 contiki-redbee-econotag.a(nvm.o)
 .data          0x00000000        0x0 contiki-redbee-econotag.a(nvm.o)
 .bss           0x00000000        0x0 contiki-redbee-econotag.a(nvm.o)
 .data.nvm_setsvar
                0x00000000        0x0 contiki-redbee-econotag.a(nvm.o)
 .data.nvm_erase
                0x00000000        0x0 contiki-redbee-econotag.a(nvm.o)
 .text          0x00000000        0x0 contiki-redbee-econotag.a(uart1.o)
 .data          0x00000000        0x0 contiki-redbee-econotag.a(uart1.o)
 .bss           0x00000000        0x0 contiki-redbee-econotag.a(uart1.o)
 .text          0x00000000        0x0 contiki-redbee-econotag.a(default_lowleve)
 .data          0x00000000        0x0 contiki-redbee-econotag.a(default_lowleve)
 .bss           0x00000000        0x0 contiki-redbee-econotag.a(default_lowleve)
 .text.default_vreg_init
                0x00000000        0x0 contiki-redbee-econotag.a(default_lowleve)
 .text.uart2_init
                0x00000000        0x0 contiki-redbee-econotag.a(default_lowleve)
 .text          0x00000000        0x0 contiki-redbee-econotag.a(isr.o)
 .data          0x00000000        0x0 contiki-redbee-econotag.a(isr.o)
 .bss           0x00000000        0x0 contiki-redbee-econotag.a(isr.o)
 .text.irq_register_timer_handler
                0x00000000        0x0 contiki-redbee-econotag.a(isr.o)
 .text          0x00000000        0x0 contiki-redbee-econotag.a(rpl-ext-header.)
 .data          0x00000000        0x0 contiki-redbee-econotag.a(rpl-ext-header.)
 .bss           0x00000000        0x0 contiki-redbee-econotag.a(rpl-ext-header.)
 .text.rpl_remove_header
                0x00000000        0x0 contiki-redbee-econotag.a(rpl-ext-header.)
 .text          0x00000000        0x0 contiki-redbee-econotag.a(frame802154.o)
 .data          0x00000000        0x0 contiki-redbee-econotag.a(frame802154.o)
 .bss           0x00000000        0x0 contiki-redbee-econotag.a(frame802154.o)
 .text          0x00000000        0x0 contiki-redbee-econotag.a(rpl.o)
 .data          0x00000000        0x0 contiki-redbee-econotag.a(rpl.o)
 .bss           0x00000000        0x0 contiki-redbee-econotag.a(rpl.o)
 .text          0x00000000        0x0 contiki-redbee-econotag.a(rpl-dag.o)
 .data          0x00000000        0x0 contiki-redbee-econotag.a(rpl-dag.o)
 .bss           0x00000000        0x0 contiki-redbee-econotag.a(rpl-dag.o)
 .text.rpl_set_default_instance
                0x00000000        0x0 contiki-redbee-econotag.a(rpl-dag.o)
 .text.rpl_repair_root
                0x00000000        0x0 contiki-redbee-econotag.a(rpl-dag.o)
 .text.rpl_set_prefix
                0x00000000        0x0 contiki-redbee-econotag.a(rpl-dag.o)
 .text.rpl_set_root
                0x00000000        0x0 contiki-redbee-econotag.a(rpl-dag.o)
 .text          0x00000000        0x0 contiki-redbee-econotag.a(rpl-icmp6.o)
 .data          0x00000000        0x0 contiki-redbee-econotag.a(rpl-icmp6.o)
 .bss           0x00000000        0x0 contiki-redbee-econotag.a(rpl-icmp6.o)
 .text          0x00000000        0x0 contiki-redbee-econotag.a(rpl-timers.o)
 .data          0x00000000        0x0 contiki-redbee-econotag.a(rpl-timers.o)
 .bss           0x00000000        0x0 contiki-redbee-econotag.a(rpl-timers.o)
 .text          0x00000000        0x0 contiki-redbee-econotag.a(rpl-of-etx.o)
 .data          0x00000000        0x0 contiki-redbee-econotag.a(rpl-of-etx.o)
 .bss           0x00000000        0x0 contiki-redbee-econotag.a(rpl-of-etx.o)
 .text          0x00000000        0x0 contiki-redbee-econotag.a(memb.o)
 .data          0x00000000        0x0 contiki-redbee-econotag.a(memb.o)
 .bss           0x00000000        0x0 contiki-redbee-econotag.a(memb.o)
 .text          0x00000000        0x0 contiki-redbee-econotag.a(timer.o)
 .data          0x00000000        0x0 contiki-redbee-econotag.a(timer.o)
 .bss           0x00000000        0x0 contiki-redbee-econotag.a(timer.o)
 .text.timer_remaining
                0x00000000        0x0 contiki-redbee-econotag.a(timer.o)
 .text          0x00000000        0x0 contiki-redbee-econotag.a(list.o)
 .data          0x00000000        0x0 contiki-redbee-econotag.a(list.o)
 .bss           0x00000000        0x0 contiki-redbee-econotag.a(list.o)
 .text.list_copy
                0x00000000        0x0 contiki-redbee-econotag.a(list.o)
 .text.list_chop
                0x00000000        0x0 contiki-redbee-econotag.a(list.o)
 .text.list_pop
                0x00000000        0x0 contiki-redbee-econotag.a(list.o)
 .text          0x00000000        0x0 contiki-redbee-econotag.a(stimer.o)
 .data          0x00000000        0x0 contiki-redbee-econotag.a(stimer.o)
 .bss           0x00000000        0x0 contiki-redbee-econotag.a(stimer.o)
 .text.stimer_reset
                0x00000000        0x0 contiki-redbee-econotag.a(stimer.o)
 .text.stimer_elapsed
                0x00000000        0x0 contiki-redbee-econotag.a(stimer.o)
 .text.stimer_remaining
                0x00000000        0x0 contiki-redbee-econotag.a(stimer.o)
 .text.stimer_restart
                0x00000000        0x0 contiki-redbee-econotag.a(stimer.o)
 .text          0x00000000        0x0 contiki-redbee-econotag.a(neighbor-attr.o)
 .data          0x00000000        0x0 contiki-redbee-econotag.a(neighbor-attr.o)
 .bss           0x00000000        0x0 contiki-redbee-econotag.a(neighbor-attr.o)
 .text.neighbor_attr_get_timeout
                0x00000000        0x0 contiki-redbee-econotag.a(neighbor-attr.o)
 .text.neighbor_attr_set_timeout
                0x00000000        0x0 contiki-redbee-econotag.a(neighbor-attr.o)
 .text.neighbor_attr_list_neighbors
                0x00000000        0x0 contiki-redbee-econotag.a(neighbor-attr.o)
 .text.timeout_check
                0x00000000        0x0 contiki-redbee-econotag.a(neighbor-attr.o)
 .text.neighbor_attr_tick
                0x00000000        0x0 contiki-redbee-econotag.a(neighbor-attr.o)
 .text.neighbor_attr_remove_neighbor
                0x00000000        0x0 contiki-redbee-econotag.a(neighbor-attr.o)
 .bss.ct        0x00000000        0x0 contiki-redbee-econotag.a(neighbor-attr.o)
 .bss.timeout   0x00000000        0x0 contiki-redbee-econotag.a(neighbor-attr.o)
 .text          0x00000000        0x0 contiki-redbee-econotag.a(debug-uart.o)
 .data          0x00000000        0x0 contiki-redbee-econotag.a(debug-uart.o)
 .bss           0x00000000        0x0 contiki-redbee-econotag.a(debug-uart.o)
 .text          0x00000000        0x0 contiki-redbee-econotag.a(leds-arch.o)
 .data          0x00000000        0x0 contiki-redbee-econotag.a(leds-arch.o)
 .bss           0x00000000        0x0 contiki-redbee-econotag.a(leds-arch.o)
 .text.leds_arch_get
                0x00000000        0x0 contiki-redbee-econotag.a(leds-arch.o)
 .text.leds_arch_set
                0x00000000        0x0 contiki-redbee-econotag.a(leds-arch.o)
 .text          0x00000000        0x0 contiki-redbee-econotag.a(uart2.o)
 .data          0x00000000        0x0 contiki-redbee-econotag.a(uart2.o)
 .bss           0x00000000        0x0 contiki-redbee-econotag.a(uart2.o)
 .text.uart2_putc
                0x00000000        0x0 contiki-redbee-econotag.a(uart2.o)
 .text.uart2_getc
                0x00000000        0x0 contiki-redbee-econotag.a(uart2.o)
 .data          0x00000000        0x0 /home/muffin/redwire/arm-2008q3/bin/../lib/gcc/arm-none-eabi/4.3.2/libgcc.a(_udivsi3.o)
 .bss           0x00000000        0x0 /home/muffin/redwire/arm-2008q3/bin/../lib/gcc/arm-none-eabi/4.3.2/libgcc.a(_udivsi3.o)
 .data          0x00000000        0x0 /home/muffin/redwire/arm-2008q3/bin/../lib/gcc/arm-none-eabi/4.3.2/libgcc.a(_divsi3.o)
 .bss           0x00000000        0x0 /home/muffin/redwire/arm-2008q3/bin/../lib/gcc/arm-none-eabi/4.3.2/libgcc.a(_divsi3.o)
 .data          0x00000000        0x0 /home/muffin/redwire/arm-2008q3/bin/../lib/gcc/arm-none-eabi/4.3.2/libgcc.a(_dvmd_tls.o)
 .bss           0x00000000        0x0 /home/muffin/redwire/arm-2008q3/bin/../lib/gcc/arm-none-eabi/4.3.2/libgcc.a(_dvmd_tls.o)
 .data          0x00000000        0x0 /home/muffin/redwire/arm-2008q3/bin/../lib/gcc/arm-none-eabi/4.3.2/libgcc.a(_aeabi_uldivmod.o)
 .bss           0x00000000        0x0 /home/muffin/redwire/arm-2008q3/bin/../lib/gcc/arm-none-eabi/4.3.2/libgcc.a(_aeabi_uldivmod.o)
 .data          0x00000000        0x0 /home/muffin/redwire/arm-2008q3/bin/../lib/gcc/arm-none-eabi/4.3.2/libgcc.a(bpabi.o)
 .bss           0x00000000        0x0 /home/muffin/redwire/arm-2008q3/bin/../lib/gcc/arm-none-eabi/4.3.2/libgcc.a(bpabi.o)
 .data          0x00000000        0x0 /home/muffin/redwire/arm-2008q3/bin/../lib/gcc/arm-none-eabi/4.3.2/libgcc.a(_divdi3.o)
 .bss           0x00000000        0x0 /home/muffin/redwire/arm-2008q3/bin/../lib/gcc/arm-none-eabi/4.3.2/libgcc.a(_divdi3.o)
 .ARM.extab     0x00000000        0x0 /home/muffin/redwire/arm-2008q3/bin/../lib/gcc/arm-none-eabi/4.3.2/libgcc.a(_divdi3.o)
 .data          0x00000000        0x0 /home/muffin/redwire/arm-2008q3/bin/../lib/gcc/arm-none-eabi/4.3.2/libgcc.a(_udivdi3.o)
 .bss           0x00000000        0x0 /home/muffin/redwire/arm-2008q3/bin/../lib/gcc/arm-none-eabi/4.3.2/libgcc.a(_udivdi3.o)
 .ARM.extab     0x00000000        0x0 /home/muffin/redwire/arm-2008q3/bin/../lib/gcc/arm-none-eabi/4.3.2/libgcc.a(_udivdi3.o)
 .text          0x00000000        0x0 /home/muffin/redwire/arm-2008q3/bin/../lib/gcc/arm-none-eabi/4.3.2/libgcc.a(_clz.o)
 .data          0x00000000        0x0 /home/muffin/redwire/arm-2008q3/bin/../lib/gcc/arm-none-eabi/4.3.2/libgcc.a(_clz.o)
 .bss           0x00000000        0x0 /home/muffin/redwire/arm-2008q3/bin/../lib/gcc/arm-none-eabi/4.3.2/libgcc.a(_clz.o)
 .text          0x00000000        0x0 /home/muffin/redwire/arm-2008q3/bin/../lib/gcc/arm-none-eabi/4.3.2/../../../../arm-none-eabi/lib/libc.a(lib_a-ctype_.o)
 .data          0x00000000        0x0 /home/muffin/redwire/arm-2008q3/bin/../lib/gcc/arm-none-eabi/4.3.2/../../../../arm-none-eabi/lib/libc.a(lib_a-ctype_.o)
 .bss           0x00000000        0x0 /home/muffin/redwire/arm-2008q3/bin/../lib/gcc/arm-none-eabi/4.3.2/../../../../arm-none-eabi/lib/libc.a(lib_a-ctype_.o)
 .rodata        0x00000000        0x0 /home/muffin/redwire/arm-2008q3/bin/../lib/gcc/arm-none-eabi/4.3.2/../../../../arm-none-eabi/lib/libc.a(lib_a-ctype_.o)
 .data          0x00000000        0x0 /home/muffin/redwire/arm-2008q3/bin/../lib/gcc/arm-none-eabi/4.3.2/../../../../arm-none-eabi/lib/libc.a(lib_a-memcmp.o)
 .bss           0x00000000        0x0 /home/muffin/redwire/arm-2008q3/bin/../lib/gcc/arm-none-eabi/4.3.2/../../../../arm-none-eabi/lib/libc.a(lib_a-memcmp.o)
 .data          0x00000000        0x0 /home/muffin/redwire/arm-2008q3/bin/../lib/gcc/arm-none-eabi/4.3.2/../../../../arm-none-eabi/lib/libc.a(lib_a-memcpy.o)
 .bss           0x00000000        0x0 /home/muffin/redwire/arm-2008q3/bin/../lib/gcc/arm-none-eabi/4.3.2/../../../../arm-none-eabi/lib/libc.a(lib_a-memcpy.o)
 .data          0x00000000        0x0 /home/muffin/redwire/arm-2008q3/bin/../lib/gcc/arm-none-eabi/4.3.2/../../../../arm-none-eabi/lib/libc.a(lib_a-memmove.o)
 .bss           0x00000000        0x0 /home/muffin/redwire/arm-2008q3/bin/../lib/gcc/arm-none-eabi/4.3.2/../../../../arm-none-eabi/lib/libc.a(lib_a-memmove.o)
 .data          0x00000000        0x0 /home/muffin/redwire/arm-2008q3/bin/../lib/gcc/arm-none-eabi/4.3.2/../../../../arm-none-eabi/lib/libc.a(lib_a-memset.o)
 .bss           0x00000000        0x0 /home/muffin/redwire/arm-2008q3/bin/../lib/gcc/arm-none-eabi/4.3.2/../../../../arm-none-eabi/lib/libc.a(lib_a-memset.o)
 .data          0x00000000        0x0 /home/muffin/redwire/arm-2008q3/bin/../lib/gcc/arm-none-eabi/4.3.2/../../../../arm-none-eabi/lib/libc.a(lib_a-strchr.o)
 .bss           0x00000000        0x0 /home/muffin/redwire/arm-2008q3/bin/../lib/gcc/arm-none-eabi/4.3.2/../../../../arm-none-eabi/lib/libc.a(lib_a-strchr.o)
 .data          0x00000000        0x0 /home/muffin/redwire/arm-2008q3/bin/../lib/gcc/arm-none-eabi/4.3.2/../../../../arm-none-eabi/lib/libc.a(lib_a-strcmp.o)
 .bss           0x00000000        0x0 /home/muffin/redwire/arm-2008q3/bin/../lib/gcc/arm-none-eabi/4.3.2/../../../../arm-none-eabi/lib/libc.a(lib_a-strcmp.o)
 .data          0x00000000        0x0 /home/muffin/redwire/arm-2008q3/bin/../lib/gcc/arm-none-eabi/4.3.2/../../../../arm-none-eabi/lib/libc.a(lib_a-strlen.o)
 .bss           0x00000000        0x0 /home/muffin/redwire/arm-2008q3/bin/../lib/gcc/arm-none-eabi/4.3.2/../../../../arm-none-eabi/lib/libc.a(lib_a-strlen.o)
 .data          0x00000000        0x0 /home/muffin/redwire/arm-2008q3/bin/../lib/gcc/arm-none-eabi/4.3.2/../../../../arm-none-eabi/lib/libc.a(lib_a-strncmp.o)
 .bss           0x00000000        0x0 /home/muffin/redwire/arm-2008q3/bin/../lib/gcc/arm-none-eabi/4.3.2/../../../../arm-none-eabi/lib/libc.a(lib_a-strncmp.o)

Memory Configuration

Name             Origin             Length             Attributes
ram              0x00400000         0x00018000         xrw
*default*        0x00000000         0xffffffff

Linker script and memory map

LOAD th-12.co
LOAD obj_redbee-econotag/shell-th-12.o
LOAD obj_redbee-econotag/sen.o
LOAD obj_redbee-econotag/contiki-mc1322x-main.o
LOAD obj_redbee-econotag/start.o
LOAD contiki-redbee-econotag.a
LOAD contiki-redbee-econotag.a
START GROUP
LOAD /home/muffin/redwire/arm-2008q3/bin/../lib/gcc/arm-none-eabi/4.3.2/libgcc.a
LOAD /home/muffin/redwire/arm-2008q3/bin/../lib/gcc/arm-none-eabi/4.3.2/../../../../arm-none-eabi/lib/libc.a
END GROUP
                0x00000400                SYS_STACK_SIZE = 0x400
                0x00000100                IRQ_STACK_SIZE = 0x100
                0x00000100                FIQ_STACK_SIZE = 0x100
                0x00000100                SVC_STACK_SIZE = 0x100
                0x00000010                ABT_STACK_SIZE = 0x10
                0x00000010                UND_STACK_SIZE = 0x10
                0x00001000                HEAP_SIZE = 0x1000
                0x00400000                PROVIDE (__executable_start, 0x400000)
                0x00400000                . = 0x400000

.text           0x00400000     0xc74c
 *(.start)
 .start         0x00400000      0x8b4 obj_redbee-econotag/start.o
                0x00400890                _bss_start
                0x00400894                _bss_end
                0x00400000                _start
 *(.irq)
 .irq           0x004008b4      0x1e8 contiki-redbee-econotag.a(isr.o)
                0x004008b4                irq
 *(.text .stub .text.* .gnu.linkonce.t.*)
 .text.process_thread_th_12
                0x00400a9c       0x50 th-12.co
 .text.process_thread_shell_info_process
                0x00400aec       0x54 obj_redbee-econotag/shell-th-12.o
 .text.shell_th12_init
                0x00400b40       0x1c obj_redbee-econotag/shell-th-12.o
                0x00400b40                shell_th12_init
                0x00400b48                .real_start_ofshell_th12_init
 .text.tmr1_isr
                0x00400b5c      0x124 obj_redbee-econotag/sen.o
                0x00400b5c                tmr1_isr
                0x00400b64                .real_start_oftmr1_isr
 .text.foo      0x00400c80       0xa4 obj_redbee-econotag/sen.o
                0x00400c88                .real_start_offoo
                0x00400c80                foo
 .text.process_thread_sen_process
                0x00400d24      0x1b0 obj_redbee-econotag/sen.o
 .text.sen_init
                0x00400ed4       0x50 obj_redbee-econotag/sen.o
                0x00400ed4                sen_init
                0x00400edc                .real_start_ofsen_init
 .text.iab_to_eui64
                0x00400f24       0x30 obj_redbee-econotag/contiki-mc1322x-main.o
                0x00400f2c                .real_start_ofiab_to_eui64
                0x00400f24                iab_to_eui64
 .text.set_rimeaddr
                0x00400f54       0xd8 obj_redbee-econotag/contiki-mc1322x-main.o
                0x00400f54                set_rimeaddr
                0x00400f5c                .real_start_ofset_rimeaddr
 .text.init_lowlevel
                0x0040102c       0xdc obj_redbee-econotag/contiki-mc1322x-main.o
                0x0040102c                init_lowlevel
                0x00401034                .real_start_ofinit_lowlevel
 .text.main     0x00401108      0x298 obj_redbee-econotag/contiki-mc1322x-main.o
                0x00401110                .real_start_ofmain
                0x00401108                main
 .text.rimeaddr_copy
                0x004013a0       0x1c contiki-redbee-econotag.a(rimeaddr.o)
                0x004013a0                rimeaddr_copy
                0x004013a8                .real_start_ofrimeaddr_copy
 .text.rimeaddr_cmp
                0x004013bc       0x2c contiki-redbee-econotag.a(rimeaddr.o)
                0x004013c4                .real_start_ofrimeaddr_cmp
                0x004013bc                rimeaddr_cmp
 .text.rimeaddr_set_node_addr
                0x004013e8       0x1c contiki-redbee-econotag.a(rimeaddr.o)
                0x004013e8                rimeaddr_set_node_addr
                0x004013f0                .real_start_ofrimeaddr_set_node_addr
 .text.send_packet
                0x00401404       0x18 contiki-redbee-econotag.a(nullmac.o)
 .text.packet_input
                0x0040141c       0x18 contiki-redbee-econotag.a(nullmac.o)
 .text.on       0x00401434       0x18 contiki-redbee-econotag.a(nullmac.o)
 .text.off      0x0040144c       0x18 contiki-redbee-econotag.a(nullmac.o)
 .text.channel_check_interval
                0x00401464        0x4 contiki-redbee-econotag.a(nullmac.o)
 .text.init     0x00401468        0x4 contiki-redbee-econotag.a(nullmac.o)
 .text.packetbuf_addr
                0x0040146c       0x10 contiki-redbee-econotag.a(nullrdc.o)
 .text.on       0x0040147c       0x18 contiki-redbee-econotag.a(nullrdc.o)
 .text.off      0x00401494       0x20 contiki-redbee-econotag.a(nullrdc.o)
 .text.channel_check_interval
                0x004014b4        0x4 contiki-redbee-econotag.a(nullrdc.o)
 .text.init     0x004014b8        0xc contiki-redbee-econotag.a(nullrdc.o)
 .text.packet_input
                0x004014c4       0xbc contiki-redbee-econotag.a(nullrdc.o)
 .text.send_packet
                0x00401580       0x80 contiki-redbee-econotag.a(nullrdc.o)
 .text.send_list
                0x00401600       0x20 contiki-redbee-econotag.a(nullrdc.o)
 .text.mac_call_sent_callback
                0x00401620       0x24 contiki-redbee-econotag.a(mac.o)
                0x00401628                .real_start_ofmac_call_sent_callback
                0x00401620                mac_call_sent_callback
 .text.packetbuf_set_attr
                0x00401644       0x10 contiki-redbee-econotag.a(framer-802154.o)
 .text.packetbuf_addr
                0x00401654       0x10 contiki-redbee-econotag.a(framer-802154.o)
 .text.packetbuf_set_addr
                0x00401664       0x1c contiki-redbee-econotag.a(framer-802154.o)
 .text.parse    0x00401680       0xa0 contiki-redbee-econotag.a(framer-802154.o)
 .text.create   0x00401720      0x10c contiki-redbee-econotag.a(framer-802154.o)
 .text.process_alloc_event
                0x0040182c       0x18 contiki-redbee-econotag.a(process.o)
                0x00401834                .real_start_ofprocess_alloc_event
                0x0040182c                process_alloc_event
 .text.process_init
                0x00401844       0x40 contiki-redbee-econotag.a(process.o)
                0x00401844                process_init
                0x0040184c                .real_start_ofprocess_init
 .text.process_post
                0x00401884       0x68 contiki-redbee-econotag.a(process.o)
                0x00401884                process_post
                0x0040188c                .real_start_ofprocess_post
 .text.process_poll
                0x004018ec       0x2c contiki-redbee-econotag.a(process.o)
                0x004018ec                process_poll
                0x004018f4                .real_start_ofprocess_poll
 .text.process_is_running
                0x00401918       0x10 contiki-redbee-econotag.a(process.o)
                0x00401918                process_is_running
                0x00401920                .real_start_ofprocess_is_running
 .text.exit_process
                0x00401928       0x98 contiki-redbee-econotag.a(process.o)
 .text.call_process
                0x004019c0       0x48 contiki-redbee-econotag.a(process.o)
 .text.process_post_synch
                0x00401a08       0x20 contiki-redbee-econotag.a(process.o)
                0x00401a10                .real_start_ofprocess_post_synch
                0x00401a08                process_post_synch
 .text.process_start
                0x00401a28       0x3c contiki-redbee-econotag.a(process.o)
                0x00401a30                .real_start_ofprocess_start
                0x00401a28                process_start
 .text.do_poll  0x00401a64       0x3c contiki-redbee-econotag.a(process.o)
 .text.process_run
                0x00401aa0       0xc8 contiki-redbee-econotag.a(process.o)
                0x00401aa8                .real_start_ofprocess_run
                0x00401aa0                process_run
 .text.process_exit
                0x00401b68       0x1c contiki-redbee-econotag.a(process.o)
                0x00401b70                .real_start_ofprocess_exit
                0x00401b68                process_exit
 .text.autostart_start
                0x00401b84       0x20 contiki-redbee-econotag.a(autostart.o)
                0x00401b8c                .real_start_ofautostart_start
                0x00401b84                autostart_start
 .text.process_thread_serial_line_process
                0x00401ba4       0xa0 contiki-redbee-econotag.a(serial-line.o)
 .text.serial_line_init
                0x00401c44       0x30 contiki-redbee-econotag.a(serial-line.o)
                0x00401c4c                .real_start_ofserial_line_init
                0x00401c44                serial_line_init
 .text.serial_line_input_byte
                0x00401c74       0x58 contiki-redbee-econotag.a(serial-line.o)
                0x00401c7c                .real_start_ofserial_line_input_byte
                0x00401c74                serial_line_input_byte
 .text.etimer_expired
                0x00401ccc       0x10 contiki-redbee-econotag.a(etimer.o)
                0x00401cd4                .real_start_ofetimer_expired
                0x00401ccc                etimer_expired
 .text.etimer_expiration_time
                0x00401cdc       0x14 contiki-redbee-econotag.a(etimer.o)
                0x00401ce4                .real_start_ofetimer_expiration_time
                0x00401cdc                etimer_expiration_time
 .text.etimer_pending
                0x00401cf0       0x18 contiki-redbee-econotag.a(etimer.o)
                0x00401cf0                etimer_pending
                0x00401cf8                .real_start_ofetimer_pending
 .text.etimer_next_expiration_time
                0x00401d08       0x20 contiki-redbee-econotag.a(etimer.o)
                0x00401d08                etimer_next_expiration_time
                0x00401d10                .real_start_ofetimer_next_expiration_time
 .text.update_time
                0x00401d28       0x4c contiki-redbee-econotag.a(etimer.o)
 .text.etimer_stop
                0x00401d74       0x44 contiki-redbee-econotag.a(etimer.o)
                0x00401d74                etimer_stop
                0x00401d7c                .real_start_ofetimer_stop
 .text.etimer_request_poll
                0x00401db8       0x1c contiki-redbee-econotag.a(etimer.o)
                0x00401dc0                .real_start_ofetimer_request_poll
                0x00401db8                etimer_request_poll
 .text.process_thread_etimer_process
                0x00401dd4       0xac contiki-redbee-econotag.a(etimer.o)
 .text.add_timer
                0x00401e80       0x40 contiki-redbee-econotag.a(etimer.o)
 .text.etimer_restart
                0x00401ec0       0x1c contiki-redbee-econotag.a(etimer.o)
                0x00401ec0                etimer_restart
                0x00401ec8                .real_start_ofetimer_restart
 .text.etimer_reset
                0x00401edc       0x1c contiki-redbee-econotag.a(etimer.o)
                0x00401edc                etimer_reset
                0x00401ee4                .real_start_ofetimer_reset
 .text.etimer_set
                0x00401ef8       0x1c contiki-redbee-econotag.a(etimer.o)
                0x00401ef8                etimer_set
                0x00401f00                .real_start_ofetimer_set
 .text.process_thread_ctimer_process
                0x00401f14       0x94 contiki-redbee-econotag.a(ctimer.o)
 .text.ctimer_stop
                0x00401fa8       0x38 contiki-redbee-econotag.a(ctimer.o)
                0x00401fb0                .real_start_ofctimer_stop
                0x00401fa8                ctimer_stop
 .text.ctimer_set
                0x00401fe0       0x5c contiki-redbee-econotag.a(ctimer.o)
                0x00401fe0                ctimer_set
                0x00401fe8                .real_start_ofctimer_set
 .text.ctimer_reset
                0x0040203c       0x4c contiki-redbee-econotag.a(ctimer.o)
                0x0040203c                ctimer_reset
                0x00402044                .real_start_ofctimer_reset
 .text.ctimer_init
                0x00402088       0x30 contiki-redbee-econotag.a(ctimer.o)
                0x00402090                .real_start_ofctimer_init
                0x00402088                ctimer_init
 .text.random_rand
                0x004020b8       0x18 contiki-redbee-econotag.a(random.o)
                0x004020b8                random_rand
                0x004020c0                .real_start_ofrandom_rand
 .text.ringbuf_init
                0x004020d0       0x18 contiki-redbee-econotag.a(ringbuf.o)
                0x004020d0                ringbuf_init
                0x004020d8                .real_start_ofringbuf_init
 .text.ringbuf_put
                0x004020e8       0x34 contiki-redbee-econotag.a(ringbuf.o)
                0x004020e8                ringbuf_put
                0x004020f0                .real_start_ofringbuf_put
 .text.ringbuf_get
                0x0040211c       0x30 contiki-redbee-econotag.a(ringbuf.o)
                0x0040211c                ringbuf_get
                0x00402124                .real_start_ofringbuf_get
 .text.packetbuf_hdrreduce
                0x0040214c       0x38 contiki-redbee-econotag.a(packetbuf.o)
                0x00402154                .real_start_ofpacketbuf_hdrreduce
                0x0040214c                packetbuf_hdrreduce
 .text.packetbuf_set_datalen
                0x00402184       0x14 contiki-redbee-econotag.a(packetbuf.o)
                0x00402184                packetbuf_set_datalen
                0x0040218c                .real_start_ofpacketbuf_set_datalen
 .text.packetbuf_dataptr
                0x00402198       0x20 contiki-redbee-econotag.a(packetbuf.o)
                0x004021a0                .real_start_ofpacketbuf_dataptr
                0x00402198                packetbuf_dataptr
 .text.packetbuf_hdrptr
                0x004021b8       0x1c contiki-redbee-econotag.a(packetbuf.o)
                0x004021b8                packetbuf_hdrptr
                0x004021c0                .real_start_ofpacketbuf_hdrptr
 .text.packetbuf_is_reference
                0x004021d4       0x24 contiki-redbee-econotag.a(packetbuf.o)
                0x004021d4                packetbuf_is_reference
                0x004021dc                .real_start_ofpacketbuf_is_reference
 .text.packetbuf_reference_ptr
                0x004021f8       0x14 contiki-redbee-econotag.a(packetbuf.o)
                0x004021f8                packetbuf_reference_ptr
                0x00402200                .real_start_ofpacketbuf_reference_ptr
 .text.packetbuf_datalen
                0x0040220c       0x14 contiki-redbee-econotag.a(packetbuf.o)
                0x0040220c                packetbuf_datalen
                0x00402214                .real_start_ofpacketbuf_datalen
 .text.packetbuf_hdrlen
                0x00402220       0x1c contiki-redbee-econotag.a(packetbuf.o)
                0x00402220                packetbuf_hdrlen
                0x00402228                .real_start_ofpacketbuf_hdrlen
 .text.packetbuf_totlen
                0x0040223c       0x24 contiki-redbee-econotag.a(packetbuf.o)
                0x0040223c                packetbuf_totlen
                0x00402244                .real_start_ofpacketbuf_totlen
 .text.packetbuf_hdralloc
                0x00402260       0x34 contiki-redbee-econotag.a(packetbuf.o)
                0x00402268                .real_start_ofpacketbuf_hdralloc
                0x00402260                packetbuf_hdralloc
 .text.packetbuf_attr_copyfrom
                0x00402294       0x30 contiki-redbee-econotag.a(packetbuf.o)
                0x00402294                packetbuf_attr_copyfrom
                0x0040229c                .real_start_ofpacketbuf_attr_copyfrom
 .text.packetbuf_attr_copyto
                0x004022c4       0x2c contiki-redbee-econotag.a(packetbuf.o)
                0x004022c4                packetbuf_attr_copyto
                0x004022cc                .real_start_ofpacketbuf_attr_copyto
 .text.packetbuf_copyto
                0x004022f0       0x68 contiki-redbee-econotag.a(packetbuf.o)
                0x004022f0                packetbuf_copyto
                0x004022f8                .real_start_ofpacketbuf_copyto
 .text.packetbuf_copyto_hdr
                0x00402358       0x30 contiki-redbee-econotag.a(packetbuf.o)
                0x00402358                packetbuf_copyto_hdr
                0x00402360                .real_start_ofpacketbuf_copyto_hdr
 .text.packetbuf_attr_clear
                0x00402388       0x58 contiki-redbee-econotag.a(packetbuf.o)
                0x00402390                .real_start_ofpacketbuf_attr_clear
                0x00402388                packetbuf_attr_clear
 .text.packetbuf_clear
                0x004023e0       0x44 contiki-redbee-econotag.a(packetbuf.o)
                0x004023e8                .real_start_ofpacketbuf_clear
                0x004023e0                packetbuf_clear
 .text.packetbuf_copyfrom
                0x00402424       0x40 contiki-redbee-econotag.a(packetbuf.o)
                0x00402424                packetbuf_copyfrom
                0x0040242c                .real_start_ofpacketbuf_copyfrom
 .text.queuebuf_to_packetbuf
                0x00402464       0x70 contiki-redbee-econotag.a(queuebuf.o)
                0x0040246c                .real_start_ofqueuebuf_to_packetbuf
                0x00402464                queuebuf_to_packetbuf
 .text.queuebuf_free
                0x004024d4       0x4c contiki-redbee-econotag.a(queuebuf.o)
                0x004024d4                queuebuf_free
                0x004024dc                .real_start_ofqueuebuf_free
 .text.queuebuf_new_from_packetbuf
                0x00402520       0x84 contiki-redbee-econotag.a(queuebuf.o)
                0x00402520                queuebuf_new_from_packetbuf
                0x00402528                .real_start_ofqueuebuf_new_from_packetbuf
 .text.queuebuf_init
                0x004025a4       0x30 contiki-redbee-econotag.a(queuebuf.o)
                0x004025a4                queuebuf_init
                0x004025ac                .real_start_ofqueuebuf_init
 .text.uip_add32
                0x004025d4       0x74 contiki-redbee-econotag.a(uip6.o)
                0x004025d4                uip_add32
                0x004025dc                .real_start_ofuip_add32
 .text.chksum   0x00402648       0x48 contiki-redbee-econotag.a(uip6.o)
 .text.uip_unlisten
                0x00402690       0x48 contiki-redbee-econotag.a(uip6.o)
                0x00402690                uip_unlisten
                0x00402698                .real_start_ofuip_unlisten
 .text.uip_add_rcv_nxt
                0x004026d8       0x38 contiki-redbee-econotag.a(uip6.o)
 .text.uip_htons
                0x00402710       0x18 contiki-redbee-econotag.a(uip6.o)
                0x00402710                uip_htons
                0x00402718                .real_start_ofuip_htons
 .text.upper_layer_chksum
                0x00402728       0x60 contiki-redbee-econotag.a(uip6.o)
 .text.uip_udpchksum
                0x00402788       0x18 contiki-redbee-econotag.a(uip6.o)
                0x00402790                .real_start_ofuip_udpchksum
                0x00402788                uip_udpchksum
 .text.uip_tcpchksum
                0x004027a0       0x18 contiki-redbee-econotag.a(uip6.o)
                0x004027a0                uip_tcpchksum
                0x004027a8                .real_start_ofuip_tcpchksum
 .text.uip_icmp6chksum
                0x004027b8       0x18 contiki-redbee-econotag.a(uip6.o)
                0x004027c0                .real_start_ofuip_icmp6chksum
                0x004027b8                uip_icmp6chksum
 .text.uip_htonl
                0x004027d0       0x28 contiki-redbee-econotag.a(uip6.o)
                0x004027d0                uip_htonl
                0x004027d8                .real_start_ofuip_htonl
 .text.ext_hdr_options_process
                0x004027f8       0xbc contiki-redbee-econotag.a(uip6.o)
 .text.remove_ext_hdr
                0x004028b4       0x64 contiki-redbee-econotag.a(uip6.o)
                0x004028bc                .real_start_ofremove_ext_hdr
                0x004028b4                remove_ext_hdr
 .text.uip_process
                0x00402918      0xf38 contiki-redbee-econotag.a(uip6.o)
                0x00402918                uip_process
                0x00402920                .real_start_ofuip_process
 .text.uip_init
                0x00403850       0x80 contiki-redbee-econotag.a(uip6.o)
                0x00403858                .real_start_ofuip_init
                0x00403850                uip_init
 .text.tcpip_output
                0x004038d0       0x28 contiki-redbee-econotag.a(tcpip.o)
                0x004038d0                tcpip_output
                0x004038d8                .real_start_oftcpip_output
 .text.tcpip_set_outputfunc
                0x004038f8       0x14 contiki-redbee-econotag.a(tcpip.o)
                0x00403900                .real_start_oftcpip_set_outputfunc
                0x004038f8                tcpip_set_outputfunc
 .text.start_periodic_tcp_timer
                0x0040390c       0x20 contiki-redbee-econotag.a(tcpip.o)
 .text.tcpip_uipcall
                0x0040392c       0x90 contiki-redbee-econotag.a(tcpip.o)
                0x0040392c                tcpip_uipcall
                0x00403934                .real_start_oftcpip_uipcall
 .text.tcpip_input
                0x004039bc       0x30 contiki-redbee-econotag.a(tcpip.o)
                0x004039c4                .real_start_oftcpip_input
                0x004039bc                tcpip_input
 .text.tcpip_ipv6_output
                0x004039ec      0x154 contiki-redbee-econotag.a(tcpip.o)
                0x004039ec                tcpip_ipv6_output
                0x004039f4                .real_start_oftcpip_ipv6_output
 .text.process_thread_tcpip_process
                0x00403b40      0x1f0 contiki-redbee-econotag.a(tcpip.o)
 .text.uip_icmp6_send
                0x00403d30       0x90 contiki-redbee-econotag.a(uip-icmp6.o)
                0x00403d30                uip_icmp6_send
                0x00403d38                .real_start_ofuip_icmp6_send
 .text.uip_icmp6_echo_request_input
                0x00403dc0      0x108 contiki-redbee-econotag.a(uip-icmp6.o)
                0x00403dc8                .real_start_ofuip_icmp6_echo_request_input
                0x00403dc0                uip_icmp6_echo_request_input
 .text.uip_icmp6_error_output
                0x00403ec8      0x184 contiki-redbee-econotag.a(uip-icmp6.o)
                0x00403ed0                .real_start_ofuip_icmp6_error_output
                0x00403ec8                uip_icmp6_error_output
 .text.uip_nd6_na_input
                0x0040404c      0x220 contiki-redbee-econotag.a(uip-nd6.o)
                0x0040404c                uip_nd6_na_input
                0x00404054                .real_start_ofuip_nd6_na_input
 .text.create_llao
                0x0040426c       0x2c contiki-redbee-econotag.a(uip-nd6.o)
 .text.uip_nd6_ns_output
                0x00404298      0x13c contiki-redbee-econotag.a(uip-nd6.o)
                0x00404298                uip_nd6_ns_output
                0x004042a0                .real_start_ofuip_nd6_ns_output
 .text.uip_nd6_ns_input
                0x004043d4      0x260 contiki-redbee-econotag.a(uip-nd6.o)
                0x004043dc                .real_start_ofuip_nd6_ns_input
                0x004043d4                uip_nd6_ns_input
 .text.packetbuf_set_attr
                0x00404634       0x10 contiki-redbee-econotag.a(sicslowpan.o)
 .text.packetbuf_addr
                0x00404644       0x10 contiki-redbee-econotag.a(sicslowpan.o)
 .text.set_packet_attrs
                0x00404654       0x48 contiki-redbee-econotag.a(sicslowpan.o)
 .text.addr_context_lookup_by_number
                0x0040469c       0x3c contiki-redbee-econotag.a(sicslowpan.o)
 .text.compress_addr_64
                0x004046d8       0xac contiki-redbee-econotag.a(sicslowpan.o)
 .text.uncompress_addr
                0x00404784       0x80 contiki-redbee-econotag.a(sicslowpan.o)
 .text.input    0x00404804      0x5d8 contiki-redbee-econotag.a(sicslowpan.o)
 .text.sicslowpan_init
                0x00404ddc       0x34 contiki-redbee-econotag.a(sicslowpan.o)
                0x00404ddc                sicslowpan_init
                0x00404de4                .real_start_ofsicslowpan_init
 .text.addr_context_lookup_by_prefix
                0x00404e10       0x50 contiki-redbee-econotag.a(sicslowpan.o)
 .text.send_packet
                0x00404e60       0x30 contiki-redbee-econotag.a(sicslowpan.o)
 .text.output   0x00404e90      0x6e0 contiki-redbee-econotag.a(sicslowpan.o)
 .text.packet_sent
                0x00405570       0x34 contiki-redbee-econotag.a(sicslowpan.o)
 .text.packetbuf_addr
                0x004055a4       0x10 contiki-redbee-econotag.a(neighbor-info.o)
 .text.neighbor_info_subscribe
                0x004055b4       0x3c contiki-redbee-econotag.a(neighbor-info.o)
                0x004055bc                .real_start_ofneighbor_info_subscribe
                0x004055b4                neighbor_info_subscribe
 .text.add_neighbor
                0x004055f0        0xc contiki-redbee-econotag.a(neighbor-info.o)
 .text.neighbor_info_packet_received
                0x004055fc       0x2c contiki-redbee-econotag.a(neighbor-info.o)
                0x00405604                .real_start_ofneighbor_info_packet_received
                0x004055fc                neighbor_info_packet_received
 .text.neighbor_info_packet_sent
                0x00405628       0xcc contiki-redbee-econotag.a(neighbor-info.o)
                0x00405628                neighbor_info_packet_sent
                0x00405630                .real_start_ofneighbor_info_packet_sent
 .text.uip_ds6_defrt_rm
                0x004056f4       0x18 contiki-redbee-econotag.a(uip-ds6.o)
                0x004056f4                uip_ds6_defrt_rm
                0x004056fc                .real_start_ofuip_ds6_defrt_rm
 .text.uip_ds6_get_link_local
                0x0040570c       0x54 contiki-redbee-econotag.a(uip-ds6.o)
                0x0040570c                uip_ds6_get_link_local
                0x00405714                .real_start_ofuip_ds6_get_link_local
 .text.uip_ds6_maddr_rm
                0x00405760       0x18 contiki-redbee-econotag.a(uip-ds6.o)
                0x00405760                uip_ds6_maddr_rm
                0x00405768                .real_start_ofuip_ds6_maddr_rm
 .text.uip_ds6_route_rm
                0x00405778       0x10 contiki-redbee-econotag.a(uip-ds6.o)
                0x00405780                .real_start_ofuip_ds6_route_rm
                0x00405778                uip_ds6_route_rm
 .text.get_match_length
                0x00405788       0x50 contiki-redbee-econotag.a(uip-ds6.o)
                0x00405790                .real_start_ofget_match_length
                0x00405788                get_match_length
 .text.uip_ds6_select_src
                0x004057d8       0xa4 contiki-redbee-econotag.a(uip-ds6.o)
                0x004057e0                .real_start_ofuip_ds6_select_src
                0x004057d8                uip_ds6_select_src
 .text.uip_ds6_compute_reachable_time
                0x0040587c       0x38 contiki-redbee-econotag.a(uip-ds6.o)
                0x0040587c                uip_ds6_compute_reachable_time
                0x00405884                .real_start_ofuip_ds6_compute_reachable_time
 .text.uip_ds6_set_addr_iid
                0x004058b4       0x24 contiki-redbee-econotag.a(uip-ds6.o)
                0x004058b4                uip_ds6_set_addr_iid
                0x004058bc                .real_start_ofuip_ds6_set_addr_iid
 .text.uip_ds6_route_rm_by_nexthop
                0x004058d8       0x50 contiki-redbee-econotag.a(uip-ds6.o)
                0x004058d8                uip_ds6_route_rm_by_nexthop
                0x004058e0                .real_start_ofuip_ds6_route_rm_by_nexthop
 .text.uip_ds6_route_lookup
                0x00405928       0x68 contiki-redbee-econotag.a(uip-ds6.o)
                0x00405928                uip_ds6_route_lookup
                0x00405930                .real_start_ofuip_ds6_route_lookup
 .text.uip_ds6_is_addr_onlink
                0x00405990       0x50 contiki-redbee-econotag.a(uip-ds6.o)
                0x00405990                uip_ds6_is_addr_onlink
                0x00405998                .real_start_ofuip_ds6_is_addr_onlink
 .text.uip_ds6_list_loop
                0x004059e0       0x60 contiki-redbee-econotag.a(uip-ds6.o)
                0x004059e8                .real_start_ofuip_ds6_list_loop
                0x004059e0                uip_ds6_list_loop
 .text.uip_ds6_maddr_lookup
                0x00405a40       0x3c contiki-redbee-econotag.a(uip-ds6.o)
                0x00405a48                .real_start_ofuip_ds6_maddr_lookup
                0x00405a40                uip_ds6_maddr_lookup
 .text.uip_ds6_addr_rm
                0x00405a7c       0x58 contiki-redbee-econotag.a(uip-ds6.o)
                0x00405a84                .real_start_ofuip_ds6_addr_rm
                0x00405a7c                uip_ds6_addr_rm
 .text.uip_ds6_maddr_add
                0x00405ad4       0x50 contiki-redbee-econotag.a(uip-ds6.o)
                0x00405ad4                uip_ds6_maddr_add
                0x00405adc                .real_start_ofuip_ds6_maddr_add
 .text.uip_ds6_addr_lookup
                0x00405b24       0x3c contiki-redbee-econotag.a(uip-ds6.o)
                0x00405b2c                .real_start_ofuip_ds6_addr_lookup
                0x00405b24                uip_ds6_addr_lookup
 .text.uip_ds6_prefix_add
                0x00405b60       0x70 contiki-redbee-econotag.a(uip-ds6.o)
                0x00405b60                uip_ds6_prefix_add
                0x00405b68                .real_start_ofuip_ds6_prefix_add
 .text.uip_ds6_defrt_lookup
                0x00405bd0       0x3c contiki-redbee-econotag.a(uip-ds6.o)
                0x00405bd8                .real_start_ofuip_ds6_defrt_lookup
                0x00405bd0                uip_ds6_defrt_lookup
 .text.uip_ds6_route_add
                0x00405c0c       0x74 contiki-redbee-econotag.a(uip-ds6.o)
                0x00405c0c                uip_ds6_route_add
                0x00405c14                .real_start_ofuip_ds6_route_add
 .text.uip_ds6_addr_add
                0x00405c80       0xac contiki-redbee-econotag.a(uip-ds6.o)
                0x00405c80                uip_ds6_addr_add
                0x00405c88                .real_start_ofuip_ds6_addr_add
 .text.uip_ds6_defrt_add
                0x00405d2c       0x6c contiki-redbee-econotag.a(uip-ds6.o)
                0x00405d34                .real_start_ofuip_ds6_defrt_add
                0x00405d2c                uip_ds6_defrt_add
 .text.uip_ds6_nbr_lookup
                0x00405d98       0x44 contiki-redbee-econotag.a(uip-ds6.o)
                0x00405d98                uip_ds6_nbr_lookup
                0x00405da0                .real_start_ofuip_ds6_nbr_lookup
 .text.uip_ds6_defrt_choose
                0x00405ddc       0x6c contiki-redbee-econotag.a(uip-ds6.o)
                0x00405de4                .real_start_ofuip_ds6_defrt_choose
                0x00405ddc                uip_ds6_defrt_choose
 .text.uip_ds6_nbr_rm
                0x00405e48       0x1c contiki-redbee-econotag.a(uip-ds6.o)
                0x00405e48                uip_ds6_nbr_rm
                0x00405e50                .real_start_ofuip_ds6_nbr_rm
 .text.uip_ds6_nbr_add
                0x00405e64       0xf4 contiki-redbee-econotag.a(uip-ds6.o)
                0x00405e64                uip_ds6_nbr_add
                0x00405e6c                .real_start_ofuip_ds6_nbr_add
 .text.uip_ds6_periodic
                0x00405f58      0x1b4 contiki-redbee-econotag.a(uip-ds6.o)
                0x00405f58                uip_ds6_periodic
                0x00405f60                .real_start_ofuip_ds6_periodic
 .text.uip_ds6_init
                0x0040610c      0x118 contiki-redbee-econotag.a(uip-ds6.o)
                0x00406114                .real_start_ofuip_ds6_init
                0x0040610c                uip_ds6_init
 .text.shell_exit
                0x00406224        0xc contiki-redbee-econotag.a(serial-shell.o)
                0x0040622c                .real_start_ofshell_exit
                0x00406224                shell_exit
 .text.process_thread_serial_shell_process
                0x00406230       0x4c contiki-redbee-econotag.a(serial-shell.o)
 .text.serial_shell_init
                0x0040627c       0x1c contiki-redbee-econotag.a(serial-shell.o)
                0x00406284                .real_start_ofserial_shell_init
                0x0040627c                serial_shell_init
 .text.shell_prompt
                0x00406298       0x28 contiki-redbee-econotag.a(serial-shell.o)
                0x00406298                shell_prompt
                0x004062a0                .real_start_ofshell_prompt
 .text.shell_default_output
                0x004062c0       0x68 contiki-redbee-econotag.a(serial-shell.o)
                0x004062c0                shell_default_output
                0x004062c8                .real_start_ofshell_default_output
 .text.process_thread_shell_null_process
                0x00406328       0x44 contiki-redbee-econotag.a(shell.o)
 .text.process_thread_shell_exit_process
                0x0040636c       0x1c contiki-redbee-econotag.a(shell.o)
 .text.input_to_child_command
                0x00406388       0x38 contiki-redbee-econotag.a(shell.o)
 .text.shell_input
                0x004063c0       0x68 contiki-redbee-econotag.a(shell.o)
                0x004063c8                .real_start_ofshell_input
                0x004063c0                shell_input
 .text.shell_set_time
                0x00406428       0x20 contiki-redbee-econotag.a(shell.o)
                0x00406428                shell_set_time
                0x00406430                .real_start_ofshell_set_time
 .text.shell_time
                0x00406448       0x20 contiki-redbee-econotag.a(shell.o)
                0x00406448                shell_time
                0x00406450                .real_start_ofshell_time
 .text.process_thread_shell_server_process
                0x00406468       0x94 contiki-redbee-econotag.a(shell.o)
 .text.shell_register_command
                0x004064fc       0x5c contiki-redbee-econotag.a(shell.o)
                0x00406504                .real_start_ofshell_register_command
                0x004064fc                shell_register_command
 .text.shell_init
                0x00406558       0x90 contiki-redbee-econotag.a(shell.o)
                0x00406558                shell_init
                0x00406560                .real_start_ofshell_init
 .text.shell_output_str
                0x004065e8       0x5c contiki-redbee-econotag.a(shell.o)
                0x004065e8                shell_output_str
                0x004065f0                .real_start_ofshell_output_str
 .text.command_kill
                0x00406644       0x28 contiki-redbee-econotag.a(shell.o)
 .text.killall  0x0040666c       0x38 contiki-redbee-econotag.a(shell.o)
 .text.process_thread_shell_killall_process
                0x004066a4       0x1c contiki-redbee-econotag.a(shell.o)
 .text.process_thread_shell_kill_process
                0x004066c0       0x84 contiki-redbee-econotag.a(shell.o)
 .text.process_thread_help_command_process
                0x00406744       0x4c contiki-redbee-econotag.a(shell.o)
 .text.start_command
                0x00406790      0x140 contiki-redbee-econotag.a(shell.o)
 .text.shell_start_command
                0x004068d0       0x50 contiki-redbee-econotag.a(shell.o)
                0x004068d0                shell_start_command
                0x004068d8                .real_start_ofshell_start_command
 .text.process_thread_shell_process
                0x00406920       0xc0 contiki-redbee-econotag.a(shell.o)
 .text.clock_time
                0x004069e0       0x14 contiki-redbee-econotag.a(clock.o)
                0x004069e8                .real_start_ofclock_time
                0x004069e0                clock_time
 .text.clock_seconds
                0x004069f4       0x14 contiki-redbee-econotag.a(clock.o)
                0x004069f4                clock_seconds
                0x004069fc                .real_start_ofclock_seconds
 .text.tmr0_isr
                0x00406a08       0x88 contiki-redbee-econotag.a(clock.o)
                0x00406a10                .real_start_oftmr0_isr
                0x00406a08                tmr0_isr
 .text.clock_init
                0x00406a90       0x70 contiki-redbee-econotag.a(clock.o)
                0x00406a90                clock_init
                0x00406a98                .real_start_ofclock_init
 .text.status   0x00406b00       0x1c contiki-redbee-econotag.a(button-sensor.o)
 .text.configure
                0x00406b1c       0x4c contiki-redbee-econotag.a(button-sensor.o)
 .text.value    0x00406b68       0x28 contiki-redbee-econotag.a(button-sensor.o)
 .text.kbi4_isr
                0x00406b90       0x40 contiki-redbee-econotag.a(button-sensor.o)
                0x00406b90                kbi4_isr
                0x00406b98                .real_start_ofkbi4_isr
 .text.get_sensor_index
                0x00406bd0       0x28 contiki-redbee-econotag.a(sensors.o)
 .text.process_thread_sensors_process
                0x00406bf8       0xe0 contiki-redbee-econotag.a(sensors.o)
 .text.sensors_changed
                0x00406cd8       0x30 contiki-redbee-econotag.a(sensors.o)
                0x00406ce0                .real_start_ofsensors_changed
                0x00406cd8                sensors_changed
 .text.watchdog_periodic
                0x00406d08        0xc contiki-redbee-econotag.a(watchdog.o)
                0x00406d08                watchdog_periodic
                0x00406d10                .real_start_ofwatchdog_periodic
 .text.cal_ring_osc
                0x00406d14       0xb8 contiki-redbee-econotag.a(contiki-crm.o)
                0x00406d14                cal_ring_osc
                0x00406d1c                .real_start_ofcal_ring_osc
 .text.packetbuf_set_attr
                0x00406dcc       0x10 contiki-redbee-econotag.a(contiki-maca.o)
 .text.contiki_maca_init
                0x00406ddc        0xc contiki-redbee-econotag.a(contiki-maca.o)
                0x00406de4                .real_start_ofcontiki_maca_init
                0x00406ddc                contiki_maca_init
 .text.contiki_maca_channel_clear
                0x00406de8        0xc contiki-redbee-econotag.a(contiki-maca.o)
                0x00406df0                .real_start_ofcontiki_maca_channel_clear
                0x00406de8                contiki_maca_channel_clear
 .text.contiki_maca_receiving_packet
                0x00406df4        0xc contiki-redbee-econotag.a(contiki-maca.o)
                0x00406df4                contiki_maca_receiving_packet
                0x00406dfc                .real_start_ofcontiki_maca_receiving_packet
 .text.contiki_maca_pending_packet
                0x00406e00       0x18 contiki-redbee-econotag.a(contiki-maca.o)
                0x00406e08                .real_start_ofcontiki_maca_pending_packet
                0x00406e00                contiki_maca_pending_packet
 .text.contiki_maca_on_request
                0x00406e18       0x20 contiki-redbee-econotag.a(contiki-maca.o)
                0x00406e20                .real_start_ofcontiki_maca_on_request
                0x00406e18                contiki_maca_on_request
 .text.contiki_maca_off_request
                0x00406e38       0x20 contiki-redbee-econotag.a(contiki-maca.o)
                0x00406e38                contiki_maca_off_request
                0x00406e40                .real_start_ofcontiki_maca_off_request
 .text.maca_tx_callback
                0x00406e58       0x20 contiki-redbee-econotag.a(contiki-maca.o)
                0x00406e60                .real_start_ofmaca_tx_callback
                0x00406e58                maca_tx_callback
 .text.maca_rx_callback
                0x00406e78       0x1c contiki-redbee-econotag.a(contiki-maca.o)
                0x00406e78                maca_rx_callback
                0x00406e80                .real_start_ofmaca_rx_callback
 .text.contiki_maca_prepare
                0x00406e94       0x3c contiki-redbee-econotag.a(contiki-maca.o)
                0x00406e9c                .real_start_ofcontiki_maca_prepare
                0x00406e94                contiki_maca_prepare
 .text.contiki_maca_transmit
                0x00406ed0       0x64 contiki-redbee-econotag.a(contiki-maca.o)
                0x00406ed0                contiki_maca_transmit
                0x00406ed8                .real_start_ofcontiki_maca_transmit
 .text.contiki_maca_send
                0x00406f34       0x3c contiki-redbee-econotag.a(contiki-maca.o)
                0x00406f3c                .real_start_ofcontiki_maca_send
                0x00406f34                contiki_maca_send
 .text.contiki_maca_read
                0x00406f70       0x58 contiki-redbee-econotag.a(contiki-maca.o)
                0x00406f78                .real_start_ofcontiki_maca_read
                0x00406f70                contiki_maca_read
 .text.process_thread_contiki_maca_process
                0x00406fc8       0x94 contiki-redbee-econotag.a(contiki-maca.o)
 .text.rand     0x0040705c       0x14 contiki-redbee-econotag.a(contiki-misc.o)
                0x0040705c                rand
                0x00407064                .real_start_ofrand
 .text.leds_init
                0x00407070       0x28 contiki-redbee-econotag.a(leds.o)
                0x00407078                .real_start_ofleds_init
                0x00407070                leds_init
 .text.uart1_set_input
                0x00407098       0x14 contiki-redbee-econotag.a(contiki-uart.o)
                0x004070a0                .real_start_ofuart1_set_input
                0x00407098                uart1_set_input
 .text.printf   0x004070ac       0x2c contiki-redbee-econotag.a(dbg-printf.o)
                0x004070ac                printf
                0x004070b4                .real_start_ofprintf
 .text.write_str
                0x004070d8       0x18 contiki-redbee-econotag.a(dbg-printf.o)
 .text.parse_uint
                0x004070f0       0x28 contiki-redbee-econotag.a(strformat.o)
 .text.output_uint_hex
                0x00407118       0x48 contiki-redbee-econotag.a(strformat.o)
 .text.fill_space
                0x00407160       0x40 contiki-redbee-econotag.a(strformat.o)
 .text.format_str_v
                0x004071a0      0x724 contiki-redbee-econotag.a(strformat.o)
                0x004071a0                format_str_v
                0x004071a8                .real_start_offormat_str_v
 .text.adc_service
                0x004078c4       0x3c contiki-redbee-econotag.a(adc.o)
                0x004078c4                adc_service
                0x004078cc                .real_start_ofadc_service
 .text.adc_init
                0x00407900       0x7c contiki-redbee-econotag.a(adc.o)
                0x00407908                .real_start_ofadc_init
                0x00407900                adc_init
 .text.gpio_select_function
                0x0040797c       0x30 contiki-redbee-econotag.a(gpio-util.o)
                0x00407984                .real_start_ofgpio_select_function
                0x0040797c                gpio_select_function
 .text.gpio_reg_set
                0x004079ac       0x20 contiki-redbee-econotag.a(gpio-util.o)
                0x004079ac                gpio_reg_set
                0x004079b4                .real_start_ofgpio_reg_set
 .text.gpio_reg_clear
                0x004079cc       0x20 contiki-redbee-econotag.a(gpio-util.o)
                0x004079d4                .real_start_ofgpio_reg_clear
                0x004079cc                gpio_reg_clear
 .text.gpio_set_pad_dir
                0x004079ec       0x38 contiki-redbee-econotag.a(gpio-util.o)
                0x004079ec                gpio_set_pad_dir
                0x004079f4                .real_start_ofgpio_set_pad_dir
 .text.free_packet
                0x00407a24       0x64 contiki-redbee-econotag.a(maca.o)
                0x00407a24                free_packet
                0x00407a2c                .real_start_offree_packet
 .text.get_free_packet
                0x00407a88       0x54 contiki-redbee-econotag.a(maca.o)
                0x00407a88                get_free_packet
                0x00407a90                .real_start_ofget_free_packet
 .text.post_receive
                0x00407adc       0xb0 contiki-redbee-econotag.a(maca.o)
                0x00407adc                post_receive
                0x00407ae4                .real_start_ofpost_receive
 .text.rx_packet
                0x00407b8c       0x54 contiki-redbee-econotag.a(maca.o)
                0x00407b94                .real_start_ofrx_packet
                0x00407b8c                rx_packet
 .text.post_tx  0x00407be0       0xd4 contiki-redbee-econotag.a(maca.o)
                0x00407be0                post_tx
                0x00407be8                .real_start_ofpost_tx
 .text.tx_packet
                0x00407cb4       0x98 contiki-redbee-econotag.a(maca.o)
                0x00407cbc                .real_start_oftx_packet
                0x00407cb4                tx_packet
 .text.free_tx_head
                0x00407d4c       0x5c contiki-redbee-econotag.a(maca.o)
                0x00407d4c                free_tx_head
                0x00407d54                .real_start_offree_tx_head
 .text.add_to_rx
                0x00407da8       0x70 contiki-redbee-econotag.a(maca.o)
                0x00407db0                .real_start_ofadd_to_rx
                0x00407da8                add_to_rx
 .text.insert_at_rx_head
                0x00407e18       0x70 contiki-redbee-econotag.a(maca.o)
                0x00407e20                .real_start_ofinsert_at_rx_head
                0x00407e18                insert_at_rx_head
 .text.set_power
                0x00407e88       0x78 contiki-redbee-econotag.a(maca.o)
                0x00407e88                set_power
                0x00407e90                .real_start_ofset_power
 .text.set_channel
                0x00407f00       0xc8 contiki-redbee-econotag.a(maca.o)
                0x00407f00                set_channel
                0x00407f08                .real_start_ofset_channel
 .text.ResumeMACASync
                0x00407fc8       0xe0 contiki-redbee-econotag.a(maca.o)
                0x00407fc8                ResumeMACASync
                0x00407fd0                .real_start_ofResumeMACASync
 .text.decode_status
                0x004080a8       0x38 contiki-redbee-econotag.a(maca.o)
                0x004080a8                decode_status
                0x004080b0                .real_start_ofdecode_status
 .text.check_maca
                0x004080e0       0xc0 contiki-redbee-econotag.a(maca.o)
                0x004080e0                check_maca
                0x004080e8                .real_start_ofcheck_maca
 .text.maca_isr
                0x004081a0      0x1ac contiki-redbee-econotag.a(maca.o)
                0x004081a8                .real_start_ofmaca_isr
                0x004081a0                maca_isr
 .text.uart1_isr
                0x0040834c       0xc8 contiki-redbee-econotag.a(uart1.o)
                0x0040834c                uart1_isr
                0x00408354                .real_start_ofuart1_isr
 .text.uart1_putc
                0x00408414       0xa8 contiki-redbee-econotag.a(uart1.o)
                0x0040841c                .real_start_ofuart1_putc
                0x00408414                uart1_putc
 .text.uart1_getc
                0x004084bc       0x64 contiki-redbee-econotag.a(uart1.o)
                0x004084bc                uart1_getc
                0x004084c4                .real_start_ofuart1_getc
 .text.uart1_init
                0x00408520       0xdc contiki-redbee-econotag.a(default_lowleve)
                0x00408520                uart1_init
                0x00408528                .real_start_ofuart1_init
 .text.rpl_invert_header
                0x004085fc       0x58 contiki-redbee-econotag.a(rpl-ext-header.)
                0x004085fc                rpl_invert_header
                0x00408604                .real_start_ofrpl_invert_header
 .text.rpl_verify_header
                0x00408654       0x80 contiki-redbee-econotag.a(rpl-ext-header.)
                0x0040865c                .real_start_ofrpl_verify_header
                0x00408654                rpl_verify_header
 .text.rpl_update_header_final
                0x004086d4       0xa8 contiki-redbee-econotag.a(rpl-ext-header.)
                0x004086dc                .real_start_ofrpl_update_header_final
                0x004086d4                rpl_update_header_final
 .text.rpl_update_header_empty
                0x0040877c       0xf4 contiki-redbee-econotag.a(rpl-ext-header.)
                0x0040877c                rpl_update_header_empty
                0x00408784                .real_start_ofrpl_update_header_empty
 .text.addr_len
                0x00408870       0x18 contiki-redbee-econotag.a(frame802154.o)
 .text.frame802154_parse
                0x00408888      0x13c contiki-redbee-econotag.a(frame802154.o)
                0x00408890                .real_start_offrame802154_parse
                0x00408888                frame802154_parse
 .text.field_len
                0x004089c4       0x64 contiki-redbee-econotag.a(frame802154.o)
 .text.frame802154_create
                0x00408a28      0x10c contiki-redbee-econotag.a(frame802154.o)
                0x00408a28                frame802154_create
                0x00408a30                .real_start_offrame802154_create
 .text.frame802154_hdrlen
                0x00408b34       0x38 contiki-redbee-econotag.a(frame802154.o)
                0x00408b34                frame802154_hdrlen
                0x00408b3c                .real_start_offrame802154_hdrlen
 .text.rpl_init
                0x00408b6c       0x4c contiki-redbee-econotag.a(rpl.o)
                0x00408b6c                rpl_init
                0x00408b74                .real_start_ofrpl_init
 .text.rpl_ipv6_neighbor_callback
                0x00408bb8       0x4c contiki-redbee-econotag.a(rpl.o)
                0x00408bc0                .real_start_ofrpl_ipv6_neighbor_callback
                0x00408bb8                rpl_ipv6_neighbor_callback
 .text.rpl_link_neighbor_callback
                0x00408c04       0x94 contiki-redbee-econotag.a(rpl.o)
 .text.rpl_add_route
                0x00408c98       0x68 contiki-redbee-econotag.a(rpl.o)
                0x00408c98                rpl_add_route
                0x00408ca0                .real_start_ofrpl_add_route
 .text.rpl_remove_routes_by_nexthop
                0x00408d00       0x48 contiki-redbee-econotag.a(rpl.o)
                0x00408d00                rpl_remove_routes_by_nexthop
                0x00408d08                .real_start_ofrpl_remove_routes_by_nexthop
 .text.rpl_remove_routes
                0x00408d48       0x30 contiki-redbee-econotag.a(rpl.o)
                0x00408d48                rpl_remove_routes
                0x00408d50                .real_start_ofrpl_remove_routes
 .text.rpl_purge_routes
                0x00408d78       0x3c contiki-redbee-econotag.a(rpl.o)
                0x00408d80                .real_start_ofrpl_purge_routes
                0x00408d78                rpl_purge_routes
 .text.lollipop_greater_than
                0x00408db4       0x40 contiki-redbee-econotag.a(rpl-dag.o)
 .text.acceptable_rank
                0x00408df4       0x50 contiki-redbee-econotag.a(rpl-dag.o)
 .text.rpl_get_any_dag
                0x00408e44       0x28 contiki-redbee-econotag.a(rpl-dag.o)
                0x00408e44                rpl_get_any_dag
                0x00408e4c                .real_start_ofrpl_get_any_dag
 .text.rpl_get_instance
                0x00408e6c       0x2c contiki-redbee-econotag.a(rpl-dag.o)
                0x00408e74                .real_start_ofrpl_get_instance
                0x00408e6c                rpl_get_instance
 .text.rpl_find_of
                0x00408e98       0x20 contiki-redbee-econotag.a(rpl-dag.o)
                0x00408e98                rpl_find_of
                0x00408ea0                .real_start_ofrpl_find_of
 .text.get_dag  0x00408eb8       0x50 contiki-redbee-econotag.a(rpl-dag.o)
 .text.find_parent_dag
                0x00408f08       0x44 contiki-redbee-econotag.a(rpl-dag.o)
 .text.rpl_select_parent
                0x00408f4c       0x50 contiki-redbee-econotag.a(rpl-dag.o)
                0x00408f54                .real_start_ofrpl_select_parent
                0x00408f4c                rpl_select_parent
 .text.rpl_find_parent_any_dag
                0x00408f9c       0x4c contiki-redbee-econotag.a(rpl-dag.o)
                0x00408fa4                .real_start_ofrpl_find_parent_any_dag
                0x00408f9c                rpl_find_parent_any_dag
 .text.rpl_find_parent
                0x00408fe8       0x34 contiki-redbee-econotag.a(rpl-dag.o)
                0x00408ff0                .real_start_ofrpl_find_parent
                0x00408fe8                rpl_find_parent
 .text.rpl_alloc_instance
                0x0040901c       0x4c contiki-redbee-econotag.a(rpl-dag.o)
                0x00409024                .real_start_ofrpl_alloc_instance
                0x0040901c                rpl_alloc_instance
 .text.set_ip_from_prefix
                0x00409068       0x30 contiki-redbee-econotag.a(rpl-dag.o)
 .text.check_prefix
                0x00409098       0x78 contiki-redbee-econotag.a(rpl-dag.o)
 .text.rpl_move_parent
                0x00409110       0x6c contiki-redbee-econotag.a(rpl-dag.o)
                0x00409110                rpl_move_parent
                0x00409118                .real_start_ofrpl_move_parent
 .text.rpl_nullify_parent
                0x0040917c       0x50 contiki-redbee-econotag.a(rpl-dag.o)
                0x0040917c                rpl_nullify_parent
                0x00409184                .real_start_ofrpl_nullify_parent
 .text.rpl_local_repair
                0x004091cc       0x60 contiki-redbee-econotag.a(rpl-dag.o)
                0x004091cc                rpl_local_repair
                0x004091d4                .real_start_ofrpl_local_repair
 .text.rpl_remove_parent
                0x0040922c       0x2c contiki-redbee-econotag.a(rpl-dag.o)
                0x0040922c                rpl_remove_parent
                0x00409234                .real_start_ofrpl_remove_parent
 .text.remove_parents
                0x00409258       0x2c contiki-redbee-econotag.a(rpl-dag.o)
 .text.rpl_free_dag
                0x00409284       0x40 contiki-redbee-econotag.a(rpl-dag.o)
                0x0040928c                .real_start_ofrpl_free_dag
                0x00409284                rpl_free_dag
 .text.rpl_add_parent
                0x004092c4       0x64 contiki-redbee-econotag.a(rpl-dag.o)
                0x004092c4                rpl_add_parent
                0x004092cc                .real_start_ofrpl_add_parent
 .text.rpl_set_default_route
                0x00409328       0x60 contiki-redbee-econotag.a(rpl-dag.o)
                0x00409330                .real_start_ofrpl_set_default_route
                0x00409328                rpl_set_default_route
 .text.rpl_select_dag
                0x00409388      0x164 contiki-redbee-econotag.a(rpl-dag.o)
                0x00409390                .real_start_ofrpl_select_dag
                0x00409388                rpl_select_dag
 .text.rpl_process_parent_event
                0x004094ec       0x58 contiki-redbee-econotag.a(rpl-dag.o)
                0x004094f4                .real_start_ofrpl_process_parent_event
                0x004094ec                rpl_process_parent_event
 .text.rpl_recalculate_ranks
                0x00409544       0x68 contiki-redbee-econotag.a(rpl-dag.o)
                0x00409544                rpl_recalculate_ranks
                0x0040954c                .real_start_ofrpl_recalculate_ranks
 .text.rpl_free_instance
                0x004095ac       0x60 contiki-redbee-econotag.a(rpl-dag.o)
                0x004095ac                rpl_free_instance
                0x004095b4                .real_start_ofrpl_free_instance
 .text.rpl_alloc_dag
                0x0040960c       0x6c contiki-redbee-econotag.a(rpl-dag.o)
                0x00409614                .real_start_ofrpl_alloc_dag
                0x0040960c                rpl_alloc_dag
 .text.rpl_add_dag
                0x00409678      0x130 contiki-redbee-econotag.a(rpl-dag.o)
                0x00409678                rpl_add_dag
                0x00409680                .real_start_ofrpl_add_dag
 .text.rpl_join_instance
                0x004097a8      0x140 contiki-redbee-econotag.a(rpl-dag.o)
                0x004097b0                .real_start_ofrpl_join_instance
                0x004097a8                rpl_join_instance
 .text.rpl_process_dio
                0x004098e8      0x248 contiki-redbee-econotag.a(rpl-dag.o)
                0x004098e8                rpl_process_dio
                0x004098f0                .real_start_ofrpl_process_dio
 .text.get32    0x00409b30       0x1c contiki-redbee-econotag.a(rpl-icmp6.o)
 .text.set32    0x00409b4c       0x18 contiki-redbee-econotag.a(rpl-icmp6.o)
 .text.get16    0x00409b64       0x10 contiki-redbee-econotag.a(rpl-icmp6.o)
 .text.set16    0x00409b74        0xc contiki-redbee-econotag.a(rpl-icmp6.o)
 .text.dao_ack_output
                0x00409b80       0x3c contiki-redbee-econotag.a(rpl-icmp6.o)
                0x00409b80                dao_ack_output
                0x00409b88                .real_start_ofdao_ack_output
 .text.dao_output
                0x00409bbc       0xe4 contiki-redbee-econotag.a(rpl-icmp6.o)
                0x00409bbc                dao_output
                0x00409bc4                .real_start_ofdao_output
 .text.dio_output
                0x00409ca0      0x220 contiki-redbee-econotag.a(rpl-icmp6.o)
                0x00409ca8                .real_start_ofdio_output
                0x00409ca0                dio_output
 .text.uip_rpl_input
                0x00409ec0      0x418 contiki-redbee-econotag.a(rpl-icmp6.o)
                0x00409ec8                .real_start_ofuip_rpl_input
                0x00409ec0                uip_rpl_input
 .text.dis_output
                0x0040a2d8       0x58 contiki-redbee-econotag.a(rpl-icmp6.o)
                0x0040a2e0                .real_start_ofdis_output
                0x0040a2d8                dis_output
 .text.rpl_schedule_dao
                0x0040a330       0x48 contiki-redbee-econotag.a(rpl-timers.o)
                0x0040a338                .real_start_ofrpl_schedule_dao
                0x0040a330                rpl_schedule_dao
 .text.new_dio_interval
                0x0040a378       0x64 contiki-redbee-econotag.a(rpl-timers.o)
 .text.rpl_reset_dio_timer
                0x0040a3dc       0x30 contiki-redbee-econotag.a(rpl-timers.o)
                0x0040a3e4                .real_start_ofrpl_reset_dio_timer
                0x0040a3dc                rpl_reset_dio_timer
 .text.rpl_reset_periodic_timer
                0x0040a40c       0x30 contiki-redbee-econotag.a(rpl-timers.o)
                0x0040a414                .real_start_ofrpl_reset_periodic_timer
                0x0040a40c                rpl_reset_periodic_timer
 .text.handle_dao_timer
                0x0040a43c       0x50 contiki-redbee-econotag.a(rpl-timers.o)
 .text.handle_dio_timer
                0x0040a48c       0x94 contiki-redbee-econotag.a(rpl-timers.o)
 .text.handle_periodic_timer
                0x0040a520       0x3c contiki-redbee-econotag.a(rpl-timers.o)
 .text.calculate_path_metric
                0x0040a55c       0x30 contiki-redbee-econotag.a(rpl-of-etx.o)
 .text.reset    0x0040a58c        0x4 contiki-redbee-econotag.a(rpl-of-etx.o)
 .text.parent_state_callback
                0x0040a590        0x4 contiki-redbee-econotag.a(rpl-of-etx.o)
 .text.calculate_rank
                0x0040a594       0x48 contiki-redbee-econotag.a(rpl-of-etx.o)
 .text.best_dag
                0x0040a5dc       0x2c contiki-redbee-econotag.a(rpl-of-etx.o)
 .text.best_parent
                0x0040a608       0x40 contiki-redbee-econotag.a(rpl-of-etx.o)
 .text.update_metric_container
                0x0040a648       0x3c contiki-redbee-econotag.a(rpl-of-etx.o)
 .text.memb_alloc
                0x0040a684       0x38 contiki-redbee-econotag.a(memb.o)
                0x0040a68c                .real_start_ofmemb_alloc
                0x0040a684                memb_alloc
 .text.memb_free
                0x0040a6bc       0x40 contiki-redbee-econotag.a(memb.o)
                0x0040a6bc                memb_free
                0x0040a6c4                .real_start_ofmemb_free
 .text.memb_inmemb
                0x0040a6fc       0x34 contiki-redbee-econotag.a(memb.o)
                0x0040a704                .real_start_ofmemb_inmemb
                0x0040a6fc                memb_inmemb
 .text.memb_init
                0x0040a730       0x2c contiki-redbee-econotag.a(memb.o)
                0x0040a738                .real_start_ofmemb_init
                0x0040a730                memb_init
 .text.timer_reset
                0x0040a75c       0x14 contiki-redbee-econotag.a(timer.o)
                0x0040a764                .real_start_oftimer_reset
                0x0040a75c                timer_reset
 .text.timer_expired
                0x0040a770       0x24 contiki-redbee-econotag.a(timer.o)
                0x0040a770                timer_expired
                0x0040a778                .real_start_oftimer_expired
 .text.timer_restart
                0x0040a794       0x18 contiki-redbee-econotag.a(timer.o)
                0x0040a79c                .real_start_oftimer_restart
                0x0040a794                timer_restart
 .text.timer_set
                0x0040a7ac       0x1c contiki-redbee-econotag.a(timer.o)
                0x0040a7b4                .real_start_oftimer_set
                0x0040a7ac                timer_set
 .text.list_init
                0x0040a7c8       0x10 contiki-redbee-econotag.a(list.o)
                0x0040a7d0                .real_start_oflist_init
                0x0040a7c8                list_init
 .text.list_head
                0x0040a7d8        0xc contiki-redbee-econotag.a(list.o)
                0x0040a7d8                list_head
                0x0040a7e0                .real_start_oflist_head
 .text.list_tail
                0x0040a7e4       0x20 contiki-redbee-econotag.a(list.o)
                0x0040a7e4                list_tail
                0x0040a7ec                .real_start_oflist_tail
 .text.list_remove
                0x0040a804       0x38 contiki-redbee-econotag.a(list.o)
                0x0040a80c                .real_start_oflist_remove
                0x0040a804                list_remove
 .text.list_push
                0x0040a83c       0x20 contiki-redbee-econotag.a(list.o)
                0x0040a83c                list_push
                0x0040a844                .real_start_oflist_push
 .text.list_add
                0x0040a85c       0x2c contiki-redbee-econotag.a(list.o)
                0x0040a85c                list_add
                0x0040a864                .real_start_oflist_add
 .text.list_length
                0x0040a888       0x1c contiki-redbee-econotag.a(list.o)
                0x0040a888                list_length
                0x0040a890                .real_start_oflist_length
 .text.list_insert
                0x0040a8a4       0x24 contiki-redbee-econotag.a(list.o)
                0x0040a8ac                .real_start_oflist_insert
                0x0040a8a4                list_insert
 .text.list_item_next
                0x0040a8c8       0x14 contiki-redbee-econotag.a(list.o)
                0x0040a8c8                list_item_next
                0x0040a8d0                .real_start_oflist_item_next
 .text.stimer_expired
                0x0040a8dc       0x2c contiki-redbee-econotag.a(stimer.o)
                0x0040a8e4                .real_start_ofstimer_expired
                0x0040a8dc                stimer_expired
 .text.stimer_set
                0x0040a908       0x1c contiki-redbee-econotag.a(stimer.o)
                0x0040a910                .real_start_ofstimer_set
                0x0040a908                stimer_set
 .text.neighbor_addr_get
                0x0040a924       0x40 contiki-redbee-econotag.a(neighbor-attr.o)
 .text.neighbor_attr_get_data
                0x0040a964       0x28 contiki-redbee-econotag.a(neighbor-attr.o)
                0x0040a964                neighbor_attr_get_data
                0x0040a96c                .real_start_ofneighbor_attr_get_data
 .text.neighbor_attr_has_neighbor
                0x0040a98c       0x18 contiki-redbee-econotag.a(neighbor-attr.o)
                0x0040a98c                neighbor_attr_has_neighbor
                0x0040a994                .real_start_ofneighbor_attr_has_neighbor
 .text.set_attr
                0x0040a9a4       0x2c contiki-redbee-econotag.a(neighbor-attr.o)
 .text.neighbor_attr_add_neighbor
                0x0040a9d0       0x88 contiki-redbee-econotag.a(neighbor-attr.o)
                0x0040a9d0                neighbor_attr_add_neighbor
                0x0040a9d8                .real_start_ofneighbor_attr_add_neighbor
 .text.neighbor_attr_set_data
                0x0040aa58       0x50 contiki-redbee-econotag.a(neighbor-attr.o)
                0x0040aa58                neighbor_attr_set_data
                0x0040aa60                .real_start_ofneighbor_attr_set_data
 .text.neighbor_attr_register
                0x0040aaa8       0x3c contiki-redbee-econotag.a(neighbor-attr.o)
                0x0040aab0                .real_start_ofneighbor_attr_register
                0x0040aaa8                neighbor_attr_register
 .text.dbg_send_bytes
                0x0040aae4       0x30 contiki-redbee-econotag.a(debug-uart.o)
                0x0040aae4                dbg_send_bytes
                0x0040aaec                .real_start_ofdbg_send_bytes
 .text.leds_arch_init
                0x0040ab14       0x4c contiki-redbee-econotag.a(leds-arch.o)
                0x0040ab14                leds_arch_init
                0x0040ab1c                .real_start_ofleds_arch_init
 .text.uart2_isr
                0x0040ab60       0xc8 contiki-redbee-econotag.a(uart2.o)
                0x0040ab60                uart2_isr
                0x0040ab68                .real_start_ofuart2_isr
 .text          0x0040ac28      0x114 /home/muffin/redwire/arm-2008q3/bin/../lib/gcc/arm-none-eabi/4.3.2/libgcc.a(_udivsi3.o)
                0x0040ac28                __udivsi3
                0x0040ac28                __aeabi_uidiv
                0x0040ad1c                __aeabi_uidivmod
 .text          0x0040ad3c      0x148 /home/muffin/redwire/arm-2008q3/bin/../lib/gcc/arm-none-eabi/4.3.2/libgcc.a(_divsi3.o)
                0x0040ad3c                __aeabi_idiv
                0x0040ad3c                __divsi3
                0x0040ae64                __aeabi_idivmod
 .text          0x0040ae84        0x4 /home/muffin/redwire/arm-2008q3/bin/../lib/gcc/arm-none-eabi/4.3.2/libgcc.a(_dvmd_tls.o)
                0x0040ae84                __aeabi_ldiv0
                0x0040ae84                __aeabi_idiv0
 .text          0x0040ae88       0x3c /home/muffin/redwire/arm-2008q3/bin/../lib/gcc/arm-none-eabi/4.3.2/libgcc.a(_aeabi_uldivmod.o)
                0x0040ae88                __aeabi_uldivmod
 .text          0x0040aec4       0x80 /home/muffin/redwire/arm-2008q3/bin/../lib/gcc/arm-none-eabi/4.3.2/libgcc.a(bpabi.o)
                0x0040aec4                __gnu_uldivmod_helper
                0x0040af04                __gnu_ldivmod_helper
 .text          0x0040af44      0x56c /home/muffin/redwire/arm-2008q3/bin/../lib/gcc/arm-none-eabi/4.3.2/libgcc.a(_divdi3.o)
                0x0040af44                __divdi3
 .text          0x0040b4b0      0x4fc /home/muffin/redwire/arm-2008q3/bin/../lib/gcc/arm-none-eabi/4.3.2/libgcc.a(_udivdi3.o)
                0x0040b4b0                __udivdi3
 .text          0x0040b9ac       0xac /home/muffin/redwire/arm-2008q3/bin/../lib/gcc/arm-none-eabi/4.3.2/../../../../arm-none-eabi/lib/libc.a(lib_a-memcmp.o)
                0x0040b9ac                memcmp
 .text          0x0040ba58       0xfc /home/muffin/redwire/arm-2008q3/bin/../lib/gcc/arm-none-eabi/4.3.2/../../../../arm-none-eabi/lib/libc.a(lib_a-memcpy.o)
                0x0040ba58                memcpy
 .text          0x0040bb54      0x144 /home/muffin/redwire/arm-2008q3/bin/../lib/gcc/arm-none-eabi/4.3.2/../../../../arm-none-eabi/lib/libc.a(lib_a-memmove.o)
                0x0040bb54                memmove
 .text          0x0040bc98       0xd0 /home/muffin/redwire/arm-2008q3/bin/../lib/gcc/arm-none-eabi/4.3.2/../../../../arm-none-eabi/lib/libc.a(lib_a-memset.o)
                0x0040bc98                memset
 .text          0x0040bd68      0x134 /home/muffin/redwire/arm-2008q3/bin/../lib/gcc/arm-none-eabi/4.3.2/../../../../arm-none-eabi/lib/libc.a(lib_a-strchr.o)
                0x0040bd68                strchr
 .text          0x0040be9c       0xe8 /home/muffin/redwire/arm-2008q3/bin/../lib/gcc/arm-none-eabi/4.3.2/../../../../arm-none-eabi/lib/libc.a(lib_a-strcmp.o)
                0x0040be9c                strcmp
 .text          0x0040bf84       0x9c /home/muffin/redwire/arm-2008q3/bin/../lib/gcc/arm-none-eabi/4.3.2/../../../../arm-none-eabi/lib/libc.a(lib_a-strlen.o)
                0x0040bf84                strlen
 .text          0x0040c020      0x144 /home/muffin/redwire/arm-2008q3/bin/../lib/gcc/arm-none-eabi/4.3.2/../../../../arm-none-eabi/lib/libc.a(lib_a-strncmp.o)
                0x0040c020                strncmp
 *(.gnu.warning)
 *(.glue_7t)
 .glue_7t       0x0040c164        0x0 th-12.co
 .glue_7t       0x0040c164        0x0 obj_redbee-econotag/shell-th-12.o
 .glue_7t       0x0040c164        0x0 obj_redbee-econotag/sen.o
 .glue_7t       0x0040c164        0x0 obj_redbee-econotag/contiki-mc1322x-main.o
 .glue_7t       0x0040c164        0x0 obj_redbee-econotag/start.o
 .glue_7t       0x0040c164        0x0 contiki-redbee-econotag.a(rimeaddr.o)
 .glue_7t       0x0040c164        0x0 contiki-redbee-econotag.a(nullmac.o)
 .glue_7t       0x0040c164        0x0 contiki-redbee-econotag.a(nullrdc.o)
 .glue_7t       0x0040c164        0x0 contiki-redbee-econotag.a(mac.o)
 .glue_7t       0x0040c164        0x0 contiki-redbee-econotag.a(framer-802154.o)
 .glue_7t       0x0040c164        0x0 contiki-redbee-econotag.a(process.o)
 .glue_7t       0x0040c164        0x0 contiki-redbee-econotag.a(autostart.o)
 .glue_7t       0x0040c164        0x0 contiki-redbee-econotag.a(serial-line.o)
 .glue_7t       0x0040c164        0x0 contiki-redbee-econotag.a(etimer.o)
 .glue_7t       0x0040c164        0x0 contiki-redbee-econotag.a(ctimer.o)
 .glue_7t       0x0040c164        0x0 contiki-redbee-econotag.a(random.o)
 .glue_7t       0x0040c164        0x0 contiki-redbee-econotag.a(ringbuf.o)
 .glue_7t       0x0040c164        0x0 contiki-redbee-econotag.a(packetbuf.o)
 .glue_7t       0x0040c164        0x0 contiki-redbee-econotag.a(queuebuf.o)
 .glue_7t       0x0040c164        0x0 contiki-redbee-econotag.a(uip6.o)
 .glue_7t       0x0040c164        0x0 contiki-redbee-econotag.a(tcpip.o)
 .glue_7t       0x0040c164        0x0 contiki-redbee-econotag.a(uip-icmp6.o)
 .glue_7t       0x0040c164        0x0 contiki-redbee-econotag.a(uip-nd6.o)
 .glue_7t       0x0040c164        0x0 contiki-redbee-econotag.a(sicslowpan.o)
 .glue_7t       0x0040c164        0x0 contiki-redbee-econotag.a(neighbor-info.o)
 .glue_7t       0x0040c164        0x0 contiki-redbee-econotag.a(uip-ds6.o)
 .glue_7t       0x0040c164        0x0 contiki-redbee-econotag.a(serial-shell.o)
 .glue_7t       0x0040c164        0x0 contiki-redbee-econotag.a(shell.o)
 .glue_7t       0x0040c164        0x0 contiki-redbee-econotag.a(clock.o)
 .glue_7t       0x0040c164        0x0 contiki-redbee-econotag.a(button-sensor.o)
 .glue_7t       0x0040c164        0x0 contiki-redbee-econotag.a(sensors.o)
 .glue_7t       0x0040c164        0x0 contiki-redbee-econotag.a(watchdog.o)
 .glue_7t       0x0040c164        0x0 contiki-redbee-econotag.a(contiki-crm.o)
 .glue_7t       0x0040c164        0x0 contiki-redbee-econotag.a(contiki-maca.o)
 .glue_7t       0x0040c164        0x0 contiki-redbee-econotag.a(contiki-misc.o)
 .glue_7t       0x0040c164        0x0 contiki-redbee-econotag.a(leds.o)
 .glue_7t       0x0040c164        0x0 contiki-redbee-econotag.a(contiki-uart.o)
 .glue_7t       0x0040c164        0x0 contiki-redbee-econotag.a(dbg-printf.o)
 .glue_7t       0x0040c164        0x0 contiki-redbee-econotag.a(strformat.o)
 .glue_7t       0x0040c164        0x0 contiki-redbee-econotag.a(adc.o)
 .glue_7t       0x0040c164        0x0 contiki-redbee-econotag.a(gpio-util.o)
 .glue_7t       0x0040c164        0x0 contiki-redbee-econotag.a(maca.o)
 .glue_7t       0x0040c164        0x0 contiki-redbee-econotag.a(nvm.o)
 .glue_7t       0x0040c164        0x0 contiki-redbee-econotag.a(uart1.o)
 .glue_7t       0x0040c164        0x0 contiki-redbee-econotag.a(default_lowleve)
 .glue_7t       0x0040c164        0x0 contiki-redbee-econotag.a(isr.o)
 .glue_7t       0x0040c164        0x0 contiki-redbee-econotag.a(rpl-ext-header.)
 .glue_7t       0x0040c164        0x0 contiki-redbee-econotag.a(frame802154.o)
 .glue_7t       0x0040c164        0x0 contiki-redbee-econotag.a(rpl.o)
 .glue_7t       0x0040c164        0x0 contiki-redbee-econotag.a(rpl-dag.o)
 .glue_7t       0x0040c164        0x0 contiki-redbee-econotag.a(rpl-icmp6.o)
 .glue_7t       0x0040c164        0x0 contiki-redbee-econotag.a(rpl-timers.o)
 .glue_7t       0x0040c164        0x0 contiki-redbee-econotag.a(rpl-of-etx.o)
 .glue_7t       0x0040c164        0x0 contiki-redbee-econotag.a(memb.o)
 .glue_7t       0x0040c164        0x0 contiki-redbee-econotag.a(timer.o)
 .glue_7t       0x0040c164        0x0 contiki-redbee-econotag.a(list.o)
 .glue_7t       0x0040c164        0x0 contiki-redbee-econotag.a(stimer.o)
 .glue_7t       0x0040c164        0x0 contiki-redbee-econotag.a(neighbor-attr.o)
 .glue_7t       0x0040c164        0x0 contiki-redbee-econotag.a(debug-uart.o)
 .glue_7t       0x0040c164        0x0 contiki-redbee-econotag.a(leds-arch.o)
 .glue_7t       0x0040c164        0x0 contiki-redbee-econotag.a(uart2.o)
 .glue_7t       0x0040c164        0x0 /home/muffin/redwire/arm-2008q3/bin/../lib/gcc/arm-none-eabi/4.3.2/libgcc.a(_udivsi3.o)
 .glue_7t       0x0040c164        0x0 /home/muffin/redwire/arm-2008q3/bin/../lib/gcc/arm-none-eabi/4.3.2/libgcc.a(_divsi3.o)
 .glue_7t       0x0040c164        0x0 /home/muffin/redwire/arm-2008q3/bin/../lib/gcc/arm-none-eabi/4.3.2/libgcc.a(_dvmd_tls.o)
 .glue_7t       0x0040c164        0x0 /home/muffin/redwire/arm-2008q3/bin/../lib/gcc/arm-none-eabi/4.3.2/libgcc.a(_aeabi_uldivmod.o)
 .glue_7t       0x0040c164        0x0 /home/muffin/redwire/arm-2008q3/bin/../lib/gcc/arm-none-eabi/4.3.2/libgcc.a(bpabi.o)
 .glue_7t       0x0040c164        0x0 /home/muffin/redwire/arm-2008q3/bin/../lib/gcc/arm-none-eabi/4.3.2/libgcc.a(_divdi3.o)
 .glue_7t       0x0040c164        0x0 /home/muffin/redwire/arm-2008q3/bin/../lib/gcc/arm-none-eabi/4.3.2/libgcc.a(_udivdi3.o)
 .glue_7t       0x0040c164        0x0 /home/muffin/redwire/arm-2008q3/bin/../lib/gcc/arm-none-eabi/4.3.2/libgcc.a(_clz.o)
 .glue_7t       0x0040c164      0x5e8 /home/muffin/redwire/arm-2008q3/bin/../lib/gcc/arm-none-eabi/4.3.2/../../../../arm-none-eabi/lib/libc.a(lib_a-ctype_.o)
                0x0040c1f8                __set_power_change_to_arm
                0x0040c1e8                __uart1_init_change_to_arm
                0x0040c35c                __memb_inmemb_from_thumb
                0x0040c21c                __ctimer_init_from_thumb
                0x0040c6f8                __rpl_add_route_change_to_arm
                0x0040c484                __uip_unlisten_from_thumb
                0x0040c1b8                __process_post_change_to_arm
                0x0040c548                __rpl_ipv6_neighbor_callback_change_to_arm
                0x0040c56c                __shell_exit_from_thumb
                0x0040c5ec                __get_free_packet_from_thumb
                0x0040c5c4                __etimer_pending_from_thumb
                0x0040c26c                __rimeaddr_cmp_from_thumb
                0x0040c490                __uip_process_change_to_arm
                0x0040c488                __uip_unlisten_change_to_arm
                0x0040c33c                __etimer_stop_from_thumb
                0x0040c268                __process_run_change_to_arm
                0x0040c404                __uip_nd6_na_input_from_thumb
                0x0040c2b4                __memset_from_thumb
                0x0040c1c8                __process_start_change_to_arm
                0x0040c530                __clock_seconds_change_to_arm
                0x0040c3b8                __memb_init_change_to_arm
                0x0040c2f8                __ringbuf_put_change_to_arm
                0x0040c588                __strcmp_change_to_arm
                0x0040c4c8                __uip_ds6_defrt_rm_change_to_arm
                0x0040c1d0                __rimeaddr_copy_change_to_arm
                0x0040c338                __list_remove_change_to_arm
                0x0040c2bc                __random_rand_from_thumb
                0x0040c578                __process_is_running_change_to_arm
                0x0040c480                __rpl_init_change_to_arm
                0x0040c300                __process_poll_change_to_arm
                0x0040c414                __uip_icmp6_echo_request_input_from_thumb
                0x0040c640                __maca_rx_callback_change_to_arm
                0x0040c428                __uip_ds6_init_change_to_arm
                0x0040c5c8                __etimer_pending_change_to_arm
                0x0040c5f8                __tx_packet_change_to_arm
                0x0040c468                ____aeabi_uidiv_change_to_arm
                0x0040c5f4                __tx_packet_from_thumb
                0x0040c2b8                __memset_change_to_arm
                0x0040c6b0                __rpl_reset_dio_timer_change_to_arm
                0x0040c68c                __uip_ds6_route_rm_from_thumb
                0x0040c654                __rpl_find_parent_from_thumb
                0x0040c5a0                __shell_default_output_change_to_arm
                0x0040c524                __neighbor_attr_has_neighbor_from_thumb
                0x0040c294                __packetbuf_datalen_from_thumb
                0x0040c1b4                __process_post_from_thumb
                0x0040c2d4                __frame802154_create_from_thumb
                0x0040c330                __list_head_change_to_arm
                0x0040c70c                __uip_ds6_get_link_local_from_thumb
                0x0040c1a0                __etimer_set_change_to_arm
                0x0040c298                __packetbuf_datalen_change_to_arm
                0x0040c730                __rpl_get_any_dag_change_to_arm
                0x0040c494                __uip_ds6_periodic_from_thumb
                0x0040c6a0                __rpl_remove_routes_by_nexthop_change_to_arm
                0x0040c420                __uip_ds6_select_src_change_to_arm
                0x0040c3d8                __tcpip_uipcall_change_to_arm
                0x0040c284                __mac_call_sent_callback_from_thumb
                0x0040c2cc                __packetbuf_hdralloc_from_thumb
                0x0040c57c                __process_exit_from_thumb
                0x0040c738                __dis_output_change_to_arm
                0x0040c6b4                __rpl_remove_routes_from_thumb
                0x0040c340                __etimer_stop_change_to_arm
                0x0040c2e0                __process_alloc_event_change_to_arm
                0x0040c3d4                __tcpip_uipcall_from_thumb
                0x0040c718                __dio_output_change_to_arm
                0x0040c370                __packetbuf_attr_copyfrom_change_to_arm
                0x0040c6d0                __rpl_schedule_dao_change_to_arm
                0x0040c560                __strlen_change_to_arm
                0x0040c5d8                __etimer_request_poll_change_to_arm
                0x0040c3f8                __uip_ds6_is_addr_onlink_change_to_arm
                0x0040c234                ____aeabi_idiv_from_thumb
                0x0040c17c                __shell_th12_init_from_thumb
                0x0040c2e8                __ringbuf_get_change_to_arm
                0x0040c3b0                __packetbuf_attr_copyto_change_to_arm
                0x0040c5cc                __etimer_next_expiration_time_from_thumb
                0x0040c5a8                __strchr_change_to_arm
                0x0040c6ac                __rpl_reset_dio_timer_from_thumb
                0x0040c224                __memcpy_from_thumb
                0x0040c518                __neighbor_attr_add_neighbor_change_to_arm
                0x0040c400                __uip_nd6_ns_input_change_to_arm
                0x0040c580                __process_exit_change_to_arm
                0x0040c464                ____aeabi_uidiv_from_thumb
                0x0040c310                __timer_expired_change_to_arm
                0x0040c4fc                __queuebuf_free_from_thumb
                0x0040c6d8                __ctimer_stop_change_to_arm
                0x0040c748                __uart1_putc_change_to_arm
                0x0040c618                __format_str_v_change_to_arm
                0x0040c34c                __list_init_from_thumb
                0x0040c244                __uip_ds6_addr_add_from_thumb
                0x0040c45c                __uip_nd6_ns_output_from_thumb
                0x0040c328                __timer_set_change_to_arm
                0x0040c31c                __timer_reset_from_thumb
                0x0040c2ac                __packetbuf_hdrreduce_from_thumb
                0x0040c384                __packetbuf_is_reference_from_thumb
                0x0040c16c                __serial_line_init_from_thumb
                0x0040c188                __sen_init_change_to_arm
                0x0040c1dc                __rimeaddr_set_node_addr_from_thumb
                0x0040c2e4                __ringbuf_get_from_thumb
                0x0040c5b0                __strncmp_change_to_arm
                0x0040c4b0                __rpl_invert_header_change_to_arm
                0x0040c668                __neighbor_info_subscribe_change_to_arm
                0x0040c180                __shell_th12_init_change_to_arm
                0x0040c1e0                __rimeaddr_set_node_addr_change_to_arm
                0x0040c590                __list_push_change_to_arm
                0x0040c40c                __uip_rpl_input_from_thumb
                0x0040c174                __serial_shell_init_from_thumb
                0x0040c69c                __rpl_remove_routes_by_nexthop_from_thumb
                0x0040c740                __ctimer_reset_change_to_arm
                0x0040c4bc                __uip_ds6_defrt_lookup_from_thumb
                0x0040c43c                __uip_ds6_defrt_choose_from_thumb
                0x0040c698                __uip_ds6_addr_rm_change_to_arm
                0x0040c178                __serial_shell_init_change_to_arm
                0x0040c474                __uip_init_from_thumb
                0x0040c6dc                __list_item_next_from_thumb
                0x0040c28c                __queuebuf_to_packetbuf_from_thumb
                0x0040c53c                ____aeabi_uidivmod_from_thumb
                0x0040c680                __uip_ds6_route_rm_by_nexthop_change_to_arm
                0x0040c410                __uip_rpl_input_change_to_arm
                0x0040c470                __stimer_set_change_to_arm
                0x0040c210                __leds_init_change_to_arm
                0x0040c260                __uart1_getc_change_to_arm
                0x0040c398                __packetbuf_reference_ptr_change_to_arm
                0x0040c278                __packetbuf_hdrptr_change_to_arm
                0x0040c5bc                __adc_service_from_thumb
                0x0040c520                __neighbor_attr_get_data_change_to_arm
                0x0040c4c4                __uip_ds6_defrt_rm_from_thumb
                0x0040c6a4                __dao_output_from_thumb
                0x0040c48c                __uip_process_from_thumb
                0x0040c230                __queuebuf_init_change_to_arm
                0x0040c250                __autostart_start_change_to_arm
                0x0040c3c4                __uip_icmp6_error_output_from_thumb
                0x0040c254                __check_maca_from_thumb
                0x0040c3ec                __rpl_update_header_empty_from_thumb
                0x0040c444                __rpl_update_header_final_from_thumb
                0x0040c728                __rpl_recalculate_ranks_change_to_arm
                0x0040c218                __process_init_change_to_arm
                0x0040c3d0                __memmove_change_to_arm
                0x0040c570                __shell_exit_change_to_arm
                0x0040c5fc                __rx_packet_from_thumb
                0x0040c4ac                __rpl_invert_header_from_thumb
                0x0040c3b4                __memb_init_from_thumb
                0x0040c550                __stimer_expired_change_to_arm
                0x0040c18c                __printf_from_thumb
                0x0040c5a4                __strchr_from_thumb
                0x0040c6c4                __uip_ds6_defrt_add_from_thumb
                0x0040c1f4                __set_power_from_thumb
                0x0040c22c                __queuebuf_init_from_thumb
                0x0040c6cc                __rpl_schedule_dao_from_thumb
                0x0040c3e4                __uip_ds6_maddr_lookup_from_thumb
                0x0040c5dc                __adc_init_from_thumb
                0x0040c5b8                __shell_prompt_change_to_arm
                0x0040c2b0                __packetbuf_hdrreduce_change_to_arm
                0x0040c2f4                __ringbuf_put_from_thumb
                0x0040c308                __clock_time_change_to_arm
                0x0040c424                __uip_ds6_init_from_thumb
                0x0040c554                __shell_init_from_thumb
                0x0040c5e4                __sensors_changed_from_thumb
                0x0040c3e0                __uip_ds6_addr_lookup_change_to_arm
                0x0040c2a0                __packetbuf_dataptr_change_to_arm
                0x0040c4b8                __uip_htonl_change_to_arm
                0x0040c20c                __leds_init_from_thumb
                0x0040c538                __neighbor_attr_set_data_change_to_arm
                0x0040c4f8                __queuebuf_new_from_packetbuf_change_to_arm
                0x0040c6c8                __uip_ds6_defrt_add_change_to_arm
                0x0040c594                __list_insert_from_thumb
                0x0040c6a8                __dao_output_change_to_arm
                0x0040c438                __uip_ds6_route_lookup_change_to_arm
                0x0040c184                __sen_init_from_thumb
                0x0040c258                __check_maca_change_to_arm
                0x0040c500                __queuebuf_free_change_to_arm
                0x0040c1e4                __uart1_init_from_thumb
                0x0040c324                __timer_set_from_thumb
                0x0040c6e0                __list_item_next_change_to_arm
                0x0040c4d0                __neighbor_info_packet_received_change_to_arm
                0x0040c4dc                __tcpip_set_outputfunc_from_thumb
                0x0040c58c                __list_push_from_thumb
                0x0040c3e8                __uip_ds6_maddr_lookup_change_to_arm
                0x0040c5f0                __get_free_packet_change_to_arm
                0x0040c4ec                __packetbuf_set_datalen_from_thumb
                0x0040c448                __rpl_update_header_final_change_to_arm
                0x0040c65c                __rpl_reset_periodic_timer_from_thumb
                0x0040c288                __mac_call_sent_callback_change_to_arm
                0x0040c200                __cal_ring_osc_change_to_arm
                0x0040c430                __process_post_synch_change_to_arm
                0x0040c50c                __neighbor_attr_register_from_thumb
                0x0040c1fc                __cal_ring_osc_from_thumb
                0x0040c700                __etimer_expiration_time_change_to_arm
                0x0040c374                __packetbuf_clear_from_thumb
                0x0040c61c                __dbg_send_bytes_from_thumb
                0x0040c240                __uip_ds6_set_addr_iid_change_to_arm
                0x0040c334                __list_remove_from_thumb
                0x0040c658                __rpl_find_parent_change_to_arm
                0x0040c19c                __etimer_set_from_thumb
                0x0040c24c                __autostart_start_from_thumb
                0x0040c5b4                __shell_prompt_from_thumb
                0x0040c2c0                __random_rand_change_to_arm
                0x0040c4a0                __uip_icmp6chksum_change_to_arm
                0x0040c2a8                __frame802154_parse_change_to_arm
                0x0040c5d0                __etimer_next_expiration_time_change_to_arm
                0x0040c220                __ctimer_init_change_to_arm
                0x0040c670                __uip_ds6_maddr_add_change_to_arm
                0x0040c5d4                __etimer_request_poll_from_thumb
                0x0040c394                __packetbuf_reference_ptr_from_thumb
                0x0040c360                __memb_inmemb_change_to_arm
                0x0040c3cc                __memmove_from_thumb
                0x0040c674                __rpl_find_parent_any_dag_from_thumb
                0x0040c204                __clock_init_from_thumb
                0x0040c504                __neighbor_info_packet_sent_from_thumb
                0x0040c4a4                __tcpip_ipv6_output_from_thumb
                0x0040c42c                __process_post_synch_from_thumb
                0x0040c318                __timer_restart_change_to_arm
                0x0040c1f0                __set_channel_change_to_arm
                0x0040c3dc                __uip_ds6_addr_lookup_from_thumb
                0x0040c44c                __uip_ds6_nbr_lookup_from_thumb
                0x0040c704                __ctimer_set_from_thumb
                0x0040c168                __uart1_set_input_change_to_arm
                0x0040c604                __free_packet_from_thumb
                0x0040c598                __list_insert_change_to_arm
                0x0040c574                __process_is_running_from_thumb
                0x0040c164                __uart1_set_input_from_thumb
                0x0040c320                __timer_reset_change_to_arm
                0x0040c5c0                __adc_service_change_to_arm
                0x0040c5e0                __adc_init_change_to_arm
                0x0040c3c8                __uip_icmp6_error_output_change_to_arm
                0x0040c72c                __rpl_get_any_dag_from_thumb
                0x0040c25c                __uart1_getc_from_thumb
                0x0040c4e8                __watchdog_periodic_change_to_arm
                0x0040c388                __packetbuf_is_reference_change_to_arm
                0x0040c5e8                __sensors_changed_change_to_arm
                0x0040c6f4                __rpl_add_route_from_thumb
                0x0040c630                __gpio_select_function_change_to_arm
                0x0040c514                __neighbor_attr_add_neighbor_from_thumb
                0x0040c390                __memb_alloc_change_to_arm
                0x0040c1c4                __process_start_from_thumb
                0x0040c478                __uip_init_change_to_arm
                0x0040c624                ____aeabi_uldivmod_from_thumb
                0x0040c6ec                __rpl_process_dio_from_thumb
                0x0040c644                __maca_tx_callback_from_thumb
                0x0040c36c                __packetbuf_attr_copyfrom_from_thumb
                0x0040c344                __list_add_from_thumb
                0x0040c460                __uip_nd6_ns_output_change_to_arm
                0x0040c3f4                __uip_ds6_is_addr_onlink_from_thumb
                0x0040c508                __neighbor_info_packet_sent_change_to_arm
                0x0040c1a8                __etimer_expired_change_to_arm
                0x0040c724                __rpl_recalculate_ranks_from_thumb
                0x0040c2f0                __ringbuf_init_change_to_arm
                0x0040c544                __rpl_ipv6_neighbor_callback_from_thumb
                0x0040c678                __rpl_find_parent_any_dag_change_to_arm
                0x0040c3a8                __packetbuf_copyto_change_to_arm
                0x0040c540                ____aeabi_uidivmod_change_to_arm
                0x0040c64c                __rpl_get_instance_from_thumb
                0x0040c440                __uip_ds6_defrt_choose_change_to_arm
                0x0040c434                __uip_ds6_route_lookup_from_thumb
                0x0040c714                __dio_output_from_thumb
                0x0040c62c                __gpio_select_function_from_thumb
                0x0040c4c0                __uip_ds6_defrt_lookup_change_to_arm
                0x0040c720                __rpl_purge_routes_change_to_arm
                0x0040c4f4                __queuebuf_new_from_packetbuf_from_thumb
                0x0040c4f0                __packetbuf_set_datalen_change_to_arm
                0x0040c378                __packetbuf_clear_change_to_arm
                0x0040c3f0                __rpl_update_header_empty_change_to_arm
                0x0040c59c                __shell_default_output_from_thumb
                0x0040c558                __shell_init_change_to_arm
                0x0040c4b4                __uip_htonl_from_thumb
                0x0040c248                __uip_ds6_addr_add_change_to_arm
                0x0040c4e0                __tcpip_set_outputfunc_change_to_arm
                0x0040c454                __uip_ds6_nbr_add_from_thumb
                0x0040c4cc                __neighbor_info_packet_received_from_thumb
                0x0040c51c                __neighbor_attr_get_data_from_thumb
                0x0040c568                __shell_input_change_to_arm
                0x0040c614                __format_str_v_from_thumb
                0x0040c6f0                __rpl_process_dio_change_to_arm
                0x0040c2fc                __process_poll_from_thumb
                0x0040c4a8                __tcpip_ipv6_output_change_to_arm
                0x0040c684                __uip_ds6_route_add_from_thumb
                0x0040c380                __memb_free_change_to_arm
                0x0040c190                __printf_change_to_arm
                0x0040c71c                __rpl_purge_routes_from_thumb
                0x0040c534                __neighbor_attr_set_data_from_thumb
                0x0040c73c                __ctimer_reset_from_thumb
                0x0040c6bc                __list_length_from_thumb
                0x0040c610                __leds_arch_init_change_to_arm
                0x0040c270                __rimeaddr_cmp_change_to_arm
                0x0040c66c                __uip_ds6_maddr_add_from_thumb
                0x0040c348                __list_add_change_to_arm
                0x0040c458                __uip_ds6_nbr_add_change_to_arm
                0x0040c39c                __packetbuf_copyto_hdr_from_thumb
                0x0040c634                __gpio_set_pad_dir_from_thumb
                0x0040c6fc                __etimer_expiration_time_from_thumb
                0x0040c2a4                __frame802154_parse_from_thumb
                0x0040c350                __list_init_change_to_arm
                0x0040c54c                __stimer_expired_from_thumb
                0x0040c63c                __maca_rx_callback_from_thumb
                0x0040c1cc                __rimeaddr_copy_from_thumb
                0x0040c4d8                __tcpip_input_change_to_arm
                0x0040c600                __rx_packet_change_to_arm
                0x0040c55c                __strlen_from_thumb
                0x0040c38c                __memb_alloc_from_thumb
                0x0040c2dc                __process_alloc_event_from_thumb
                0x0040c4e4                __watchdog_periodic_from_thumb
                0x0040c304                __clock_time_from_thumb
                0x0040c354                __rand_from_thumb
                0x0040c408                __uip_nd6_na_input_change_to_arm
                0x0040c280                __packetbuf_totlen_change_to_arm
                0x0040c264                __process_run_from_thumb
                0x0040c32c                __list_head_from_thumb
                0x0040c1d4                __memcmp_from_thumb
                0x0040c214                __process_init_from_thumb
                0x0040c314                __timer_restart_from_thumb
                0x0040c274                __packetbuf_hdrptr_from_thumb
                0x0040c6b8                __rpl_remove_routes_change_to_arm
                0x0040c688                __uip_ds6_route_add_change_to_arm
                0x0040c1ec                __set_channel_from_thumb
                0x0040c1d8                __memcmp_change_to_arm
                0x0040c564                __shell_input_from_thumb
                0x0040c3a0                __packetbuf_copyto_hdr_change_to_arm
                0x0040c364                __packetbuf_copyfrom_from_thumb
                0x0040c27c                __packetbuf_totlen_from_thumb
                0x0040c170                __serial_line_init_change_to_arm
                0x0040c3ac                __packetbuf_attr_copyto_from_thumb
                0x0040c660                __rpl_reset_periodic_timer_change_to_arm
                0x0040c49c                __uip_icmp6chksum_from_thumb
                0x0040c628                ____aeabi_uldivmod_change_to_arm
                0x0040c2c4                __frame802154_hdrlen_from_thumb
                0x0040c638                __gpio_set_pad_dir_change_to_arm
                0x0040c2c8                __frame802154_hdrlen_change_to_arm
                0x0040c30c                __timer_expired_from_thumb
                0x0040c368                __packetbuf_copyfrom_change_to_arm
                0x0040c6e8                __uip_icmp6_send_change_to_arm
                0x0040c60c                __leds_arch_init_from_thumb
                0x0040c47c                __rpl_init_from_thumb
                0x0040c744                __uart1_putc_from_thumb
                0x0040c710                __uip_ds6_get_link_local_change_to_arm
                0x0040c194                __shell_register_command_from_thumb
                0x0040c528                __neighbor_attr_has_neighbor_change_to_arm
                0x0040c450                __uip_ds6_nbr_lookup_change_to_arm
                0x0040c228                __memcpy_change_to_arm
                0x0040c3a4                __packetbuf_copyto_from_thumb
                0x0040c1a4                __etimer_expired_from_thumb
                0x0040c584                __strcmp_from_thumb
                0x0040c510                __neighbor_attr_register_change_to_arm
                0x0040c37c                __memb_free_from_thumb
                0x0040c52c                __clock_seconds_from_thumb
                0x0040c198                __shell_register_command_change_to_arm
                0x0040c5ac                __strncmp_from_thumb
                0x0040c648                __maca_tx_callback_change_to_arm
                0x0040c708                __ctimer_set_change_to_arm
                0x0040c2ec                __ringbuf_init_from_thumb
                0x0040c650                __rpl_get_instance_change_to_arm
                0x0040c2d0                __packetbuf_hdralloc_change_to_arm
                0x0040c41c                __uip_ds6_select_src_from_thumb
                0x0040c734                __dis_output_from_thumb
                0x0040c67c                __uip_ds6_route_rm_by_nexthop_from_thumb
                0x0040c23c                __uip_ds6_set_addr_iid_from_thumb
                0x0040c238                ____aeabi_idiv_change_to_arm
                0x0040c498                __uip_ds6_periodic_change_to_arm
                0x0040c6d4                __ctimer_stop_from_thumb
                0x0040c608                __free_packet_change_to_arm
                0x0040c290                __queuebuf_to_packetbuf_change_to_arm
                0x0040c3c0                __rpl_verify_header_change_to_arm
                0x0040c46c                __stimer_set_from_thumb
                0x0040c1c0                __etimer_reset_change_to_arm
                0x0040c664                __neighbor_info_subscribe_from_thumb
                0x0040c620                __dbg_send_bytes_change_to_arm
                0x0040c690                __uip_ds6_route_rm_change_to_arm
                0x0040c3bc                __rpl_verify_header_from_thumb
                0x0040c3fc                __uip_nd6_ns_input_from_thumb
                0x0040c1bc                __etimer_reset_from_thumb
                0x0040c208                __clock_init_change_to_arm
                0x0040c1b0                __etimer_restart_change_to_arm
                0x0040c6c0                __list_length_change_to_arm
                0x0040c29c                __packetbuf_dataptr_from_thumb
                0x0040c1ac                __etimer_restart_from_thumb
                0x0040c418                __uip_icmp6_echo_request_input_change_to_arm
                0x0040c4d4                __tcpip_input_from_thumb
                0x0040c694                __uip_ds6_addr_rm_from_thumb
                0x0040c358                __rand_change_to_arm
                0x0040c6e4                __uip_icmp6_send_from_thumb
                0x0040c2d8                __frame802154_create_change_to_arm
 .glue_7t       0x0040c74c        0x0 /home/muffin/redwire/arm-2008q3/bin/../lib/gcc/arm-none-eabi/4.3.2/../../../../arm-none-eabi/lib/libc.a(lib_a-memcmp.o)
 .glue_7t       0x0040c74c        0x0 /home/muffin/redwire/arm-2008q3/bin/../lib/gcc/arm-none-eabi/4.3.2/../../../../arm-none-eabi/lib/libc.a(lib_a-memcpy.o)
 .glue_7t       0x0040c74c        0x0 /home/muffin/redwire/arm-2008q3/bin/../lib/gcc/arm-none-eabi/4.3.2/../../../../arm-none-eabi/lib/libc.a(lib_a-memmove.o)
 .glue_7t       0x0040c74c        0x0 /home/muffin/redwire/arm-2008q3/bin/../lib/gcc/arm-none-eabi/4.3.2/../../../../arm-none-eabi/lib/libc.a(lib_a-memset.o)
 .glue_7t       0x0040c74c        0x0 /home/muffin/redwire/arm-2008q3/bin/../lib/gcc/arm-none-eabi/4.3.2/../../../../arm-none-eabi/lib/libc.a(lib_a-strchr.o)
 .glue_7t       0x0040c74c        0x0 /home/muffin/redwire/arm-2008q3/bin/../lib/gcc/arm-none-eabi/4.3.2/../../../../arm-none-eabi/lib/libc.a(lib_a-strcmp.o)
 .glue_7t       0x0040c74c        0x0 /home/muffin/redwire/arm-2008q3/bin/../lib/gcc/arm-none-eabi/4.3.2/../../../../arm-none-eabi/lib/libc.a(lib_a-strlen.o)
 .glue_7t       0x0040c74c        0x0 /home/muffin/redwire/arm-2008q3/bin/../lib/gcc/arm-none-eabi/4.3.2/../../../../arm-none-eabi/lib/libc.a(lib_a-strncmp.o)
 *(.glue_7)
 .glue_7        0x0040c74c        0x0 th-12.co
 .glue_7        0x0040c74c        0x0 obj_redbee-econotag/shell-th-12.o
 .glue_7        0x0040c74c        0x0 obj_redbee-econotag/sen.o
 .glue_7        0x0040c74c        0x0 obj_redbee-econotag/contiki-mc1322x-main.o
 .glue_7        0x0040c74c        0x0 obj_redbee-econotag/start.o
 .glue_7        0x0040c74c        0x0 contiki-redbee-econotag.a(rimeaddr.o)
 .glue_7        0x0040c74c        0x0 contiki-redbee-econotag.a(nullmac.o)
 .glue_7        0x0040c74c        0x0 contiki-redbee-econotag.a(nullrdc.o)
 .glue_7        0x0040c74c        0x0 contiki-redbee-econotag.a(mac.o)
 .glue_7        0x0040c74c        0x0 contiki-redbee-econotag.a(framer-802154.o)
 .glue_7        0x0040c74c        0x0 contiki-redbee-econotag.a(process.o)
 .glue_7        0x0040c74c        0x0 contiki-redbee-econotag.a(autostart.o)
 .glue_7        0x0040c74c        0x0 contiki-redbee-econotag.a(serial-line.o)
 .glue_7        0x0040c74c        0x0 contiki-redbee-econotag.a(etimer.o)
 .glue_7        0x0040c74c        0x0 contiki-redbee-econotag.a(ctimer.o)
 .glue_7        0x0040c74c        0x0 contiki-redbee-econotag.a(random.o)
 .glue_7        0x0040c74c        0x0 contiki-redbee-econotag.a(ringbuf.o)
 .glue_7        0x0040c74c        0x0 contiki-redbee-econotag.a(packetbuf.o)
 .glue_7        0x0040c74c        0x0 contiki-redbee-econotag.a(queuebuf.o)
 .glue_7        0x0040c74c        0x0 contiki-redbee-econotag.a(uip6.o)
 .glue_7        0x0040c74c        0x0 contiki-redbee-econotag.a(tcpip.o)
 .glue_7        0x0040c74c        0x0 contiki-redbee-econotag.a(uip-icmp6.o)
 .glue_7        0x0040c74c        0x0 contiki-redbee-econotag.a(uip-nd6.o)
 .glue_7        0x0040c74c        0x0 contiki-redbee-econotag.a(sicslowpan.o)
 .glue_7        0x0040c74c        0x0 contiki-redbee-econotag.a(neighbor-info.o)
 .glue_7        0x0040c74c        0x0 contiki-redbee-econotag.a(uip-ds6.o)
 .glue_7        0x0040c74c        0x0 contiki-redbee-econotag.a(serial-shell.o)
 .glue_7        0x0040c74c        0x0 contiki-redbee-econotag.a(shell.o)
 .glue_7        0x0040c74c        0x0 contiki-redbee-econotag.a(clock.o)
 .glue_7        0x0040c74c        0x0 contiki-redbee-econotag.a(button-sensor.o)
 .glue_7        0x0040c74c        0x0 contiki-redbee-econotag.a(sensors.o)
 .glue_7        0x0040c74c        0x0 contiki-redbee-econotag.a(watchdog.o)
 .glue_7        0x0040c74c        0x0 contiki-redbee-econotag.a(contiki-crm.o)
 .glue_7        0x0040c74c        0x0 contiki-redbee-econotag.a(contiki-maca.o)
 .glue_7        0x0040c74c        0x0 contiki-redbee-econotag.a(contiki-misc.o)
 .glue_7        0x0040c74c        0x0 contiki-redbee-econotag.a(leds.o)
 .glue_7        0x0040c74c        0x0 contiki-redbee-econotag.a(contiki-uart.o)
 .glue_7        0x0040c74c        0x0 contiki-redbee-econotag.a(dbg-printf.o)
 .glue_7        0x0040c74c        0x0 contiki-redbee-econotag.a(strformat.o)
 .glue_7        0x0040c74c        0x0 contiki-redbee-econotag.a(adc.o)
 .glue_7        0x0040c74c        0x0 contiki-redbee-econotag.a(gpio-util.o)
 .glue_7        0x0040c74c        0x0 contiki-redbee-econotag.a(maca.o)
 .glue_7        0x0040c74c        0x0 contiki-redbee-econotag.a(nvm.o)
 .glue_7        0x0040c74c        0x0 contiki-redbee-econotag.a(uart1.o)
 .glue_7        0x0040c74c        0x0 contiki-redbee-econotag.a(default_lowleve)
 .glue_7        0x0040c74c        0x0 contiki-redbee-econotag.a(isr.o)
 .glue_7        0x0040c74c        0x0 contiki-redbee-econotag.a(rpl-ext-header.)
 .glue_7        0x0040c74c        0x0 contiki-redbee-econotag.a(frame802154.o)
 .glue_7        0x0040c74c        0x0 contiki-redbee-econotag.a(rpl.o)
 .glue_7        0x0040c74c        0x0 contiki-redbee-econotag.a(rpl-dag.o)
 .glue_7        0x0040c74c        0x0 contiki-redbee-econotag.a(rpl-icmp6.o)
 .glue_7        0x0040c74c        0x0 contiki-redbee-econotag.a(rpl-timers.o)
 .glue_7        0x0040c74c        0x0 contiki-redbee-econotag.a(rpl-of-etx.o)
 .glue_7        0x0040c74c        0x0 contiki-redbee-econotag.a(memb.o)
 .glue_7        0x0040c74c        0x0 contiki-redbee-econotag.a(timer.o)
 .glue_7        0x0040c74c        0x0 contiki-redbee-econotag.a(list.o)
 .glue_7        0x0040c74c        0x0 contiki-redbee-econotag.a(stimer.o)
 .glue_7        0x0040c74c        0x0 contiki-redbee-econotag.a(neighbor-attr.o)
 .glue_7        0x0040c74c        0x0 contiki-redbee-econotag.a(debug-uart.o)
 .glue_7        0x0040c74c        0x0 contiki-redbee-econotag.a(leds-arch.o)
 .glue_7        0x0040c74c        0x0 contiki-redbee-econotag.a(uart2.o)
 .glue_7        0x0040c74c        0x0 /home/muffin/redwire/arm-2008q3/bin/../lib/gcc/arm-none-eabi/4.3.2/libgcc.a(_udivsi3.o)
 .glue_7        0x0040c74c        0x0 /home/muffin/redwire/arm-2008q3/bin/../lib/gcc/arm-none-eabi/4.3.2/libgcc.a(_divsi3.o)
 .glue_7        0x0040c74c        0x0 /home/muffin/redwire/arm-2008q3/bin/../lib/gcc/arm-none-eabi/4.3.2/libgcc.a(_dvmd_tls.o)
 .glue_7        0x0040c74c        0x0 /home/muffin/redwire/arm-2008q3/bin/../lib/gcc/arm-none-eabi/4.3.2/libgcc.a(_aeabi_uldivmod.o)
 .glue_7        0x0040c74c        0x0 /home/muffin/redwire/arm-2008q3/bin/../lib/gcc/arm-none-eabi/4.3.2/libgcc.a(bpabi.o)
 .glue_7        0x0040c74c        0x0 /home/muffin/redwire/arm-2008q3/bin/../lib/gcc/arm-none-eabi/4.3.2/libgcc.a(_divdi3.o)
 .glue_7        0x0040c74c        0x0 /home/muffin/redwire/arm-2008q3/bin/../lib/gcc/arm-none-eabi/4.3.2/libgcc.a(_udivdi3.o)
 .glue_7        0x0040c74c        0x0 /home/muffin/redwire/arm-2008q3/bin/../lib/gcc/arm-none-eabi/4.3.2/libgcc.a(_clz.o)
 .glue_7        0x0040c74c        0x0 /home/muffin/redwire/arm-2008q3/bin/../lib/gcc/arm-none-eabi/4.3.2/../../../../arm-none-eabi/lib/libc.a(lib_a-ctype_.o)
 .glue_7        0x0040c74c        0x0 /home/muffin/redwire/arm-2008q3/bin/../lib/gcc/arm-none-eabi/4.3.2/../../../../arm-none-eabi/lib/libc.a(lib_a-memcmp.o)
 .glue_7        0x0040c74c        0x0 /home/muffin/redwire/arm-2008q3/bin/../lib/gcc/arm-none-eabi/4.3.2/../../../../arm-none-eabi/lib/libc.a(lib_a-memcpy.o)
 .glue_7        0x0040c74c        0x0 /home/muffin/redwire/arm-2008q3/bin/../lib/gcc/arm-none-eabi/4.3.2/../../../../arm-none-eabi/lib/libc.a(lib_a-memmove.o)
 .glue_7        0x0040c74c        0x0 /home/muffin/redwire/arm-2008q3/bin/../lib/gcc/arm-none-eabi/4.3.2/../../../../arm-none-eabi/lib/libc.a(lib_a-memset.o)
 .glue_7        0x0040c74c        0x0 /home/muffin/redwire/arm-2008q3/bin/../lib/gcc/arm-none-eabi/4.3.2/../../../../arm-none-eabi/lib/libc.a(lib_a-strchr.o)
 .glue_7        0x0040c74c        0x0 /home/muffin/redwire/arm-2008q3/bin/../lib/gcc/arm-none-eabi/4.3.2/../../../../arm-none-eabi/lib/libc.a(lib_a-strcmp.o)
 .glue_7        0x0040c74c        0x0 /home/muffin/redwire/arm-2008q3/bin/../lib/gcc/arm-none-eabi/4.3.2/../../../../arm-none-eabi/lib/libc.a(lib_a-strlen.o)
 .glue_7        0x0040c74c        0x0 /home/muffin/redwire/arm-2008q3/bin/../lib/gcc/arm-none-eabi/4.3.2/../../../../arm-none-eabi/lib/libc.a(lib_a-strncmp.o)
 *(.vfp11_veneer)
 .vfp11_veneer  0x0040c74c        0x0 th-12.co
 .vfp11_veneer  0x0040c74c        0x0 obj_redbee-econotag/shell-th-12.o
 .vfp11_veneer  0x0040c74c        0x0 obj_redbee-econotag/sen.o
 .vfp11_veneer  0x0040c74c        0x0 obj_redbee-econotag/contiki-mc1322x-main.o
 .vfp11_veneer  0x0040c74c        0x0 obj_redbee-econotag/start.o
 .vfp11_veneer  0x0040c74c        0x0 contiki-redbee-econotag.a(rimeaddr.o)
 .vfp11_veneer  0x0040c74c        0x0 contiki-redbee-econotag.a(nullmac.o)
 .vfp11_veneer  0x0040c74c        0x0 contiki-redbee-econotag.a(nullrdc.o)
 .vfp11_veneer  0x0040c74c        0x0 contiki-redbee-econotag.a(mac.o)
 .vfp11_veneer  0x0040c74c        0x0 contiki-redbee-econotag.a(framer-802154.o)
 .vfp11_veneer  0x0040c74c        0x0 contiki-redbee-econotag.a(process.o)
 .vfp11_veneer  0x0040c74c        0x0 contiki-redbee-econotag.a(autostart.o)
 .vfp11_veneer  0x0040c74c        0x0 contiki-redbee-econotag.a(serial-line.o)
 .vfp11_veneer  0x0040c74c        0x0 contiki-redbee-econotag.a(etimer.o)
 .vfp11_veneer  0x0040c74c        0x0 contiki-redbee-econotag.a(ctimer.o)
 .vfp11_veneer  0x0040c74c        0x0 contiki-redbee-econotag.a(random.o)
 .vfp11_veneer  0x0040c74c        0x0 contiki-redbee-econotag.a(ringbuf.o)
 .vfp11_veneer  0x0040c74c        0x0 contiki-redbee-econotag.a(packetbuf.o)
 .vfp11_veneer  0x0040c74c        0x0 contiki-redbee-econotag.a(queuebuf.o)
 .vfp11_veneer  0x0040c74c        0x0 contiki-redbee-econotag.a(uip6.o)
 .vfp11_veneer  0x0040c74c        0x0 contiki-redbee-econotag.a(tcpip.o)
 .vfp11_veneer  0x0040c74c        0x0 contiki-redbee-econotag.a(uip-icmp6.o)
 .vfp11_veneer  0x0040c74c        0x0 contiki-redbee-econotag.a(uip-nd6.o)
 .vfp11_veneer  0x0040c74c        0x0 contiki-redbee-econotag.a(sicslowpan.o)
 .vfp11_veneer  0x0040c74c        0x0 contiki-redbee-econotag.a(neighbor-info.o)
 .vfp11_veneer  0x0040c74c        0x0 contiki-redbee-econotag.a(uip-ds6.o)
 .vfp11_veneer  0x0040c74c        0x0 contiki-redbee-econotag.a(serial-shell.o)
 .vfp11_veneer  0x0040c74c        0x0 contiki-redbee-econotag.a(shell.o)
 .vfp11_veneer  0x0040c74c        0x0 contiki-redbee-econotag.a(clock.o)
 .vfp11_veneer  0x0040c74c        0x0 contiki-redbee-econotag.a(button-sensor.o)
 .vfp11_veneer  0x0040c74c        0x0 contiki-redbee-econotag.a(sensors.o)
 .vfp11_veneer  0x0040c74c        0x0 contiki-redbee-econotag.a(watchdog.o)
 .vfp11_veneer  0x0040c74c        0x0 contiki-redbee-econotag.a(contiki-crm.o)
 .vfp11_veneer  0x0040c74c        0x0 contiki-redbee-econotag.a(contiki-maca.o)
 .vfp11_veneer  0x0040c74c        0x0 contiki-redbee-econotag.a(contiki-misc.o)
 .vfp11_veneer  0x0040c74c        0x0 contiki-redbee-econotag.a(leds.o)
 .vfp11_veneer  0x0040c74c        0x0 contiki-redbee-econotag.a(contiki-uart.o)
 .vfp11_veneer  0x0040c74c        0x0 contiki-redbee-econotag.a(dbg-printf.o)
 .vfp11_veneer  0x0040c74c        0x0 contiki-redbee-econotag.a(strformat.o)
 .vfp11_veneer  0x0040c74c        0x0 contiki-redbee-econotag.a(adc.o)
 .vfp11_veneer  0x0040c74c        0x0 contiki-redbee-econotag.a(gpio-util.o)
 .vfp11_veneer  0x0040c74c        0x0 contiki-redbee-econotag.a(maca.o)
 .vfp11_veneer  0x0040c74c        0x0 contiki-redbee-econotag.a(nvm.o)
 .vfp11_veneer  0x0040c74c        0x0 contiki-redbee-econotag.a(uart1.o)
 .vfp11_veneer  0x0040c74c        0x0 contiki-redbee-econotag.a(default_lowleve)
 .vfp11_veneer  0x0040c74c        0x0 contiki-redbee-econotag.a(isr.o)
 .vfp11_veneer  0x0040c74c        0x0 contiki-redbee-econotag.a(rpl-ext-header.)
 .vfp11_veneer  0x0040c74c        0x0 contiki-redbee-econotag.a(frame802154.o)
 .vfp11_veneer  0x0040c74c        0x0 contiki-redbee-econotag.a(rpl.o)
 .vfp11_veneer  0x0040c74c        0x0 contiki-redbee-econotag.a(rpl-dag.o)
 .vfp11_veneer  0x0040c74c        0x0 contiki-redbee-econotag.a(rpl-icmp6.o)
 .vfp11_veneer  0x0040c74c        0x0 contiki-redbee-econotag.a(rpl-timers.o)
 .vfp11_veneer  0x0040c74c        0x0 contiki-redbee-econotag.a(rpl-of-etx.o)
 .vfp11_veneer  0x0040c74c        0x0 contiki-redbee-econotag.a(memb.o)
 .vfp11_veneer  0x0040c74c        0x0 contiki-redbee-econotag.a(timer.o)
 .vfp11_veneer  0x0040c74c        0x0 contiki-redbee-econotag.a(list.o)
 .vfp11_veneer  0x0040c74c        0x0 contiki-redbee-econotag.a(stimer.o)
 .vfp11_veneer  0x0040c74c        0x0 contiki-redbee-econotag.a(neighbor-attr.o)
 .vfp11_veneer  0x0040c74c        0x0 contiki-redbee-econotag.a(debug-uart.o)
 .vfp11_veneer  0x0040c74c        0x0 contiki-redbee-econotag.a(leds-arch.o)
 .vfp11_veneer  0x0040c74c        0x0 contiki-redbee-econotag.a(uart2.o)
 .vfp11_veneer  0x0040c74c        0x0 /home/muffin/redwire/arm-2008q3/bin/../lib/gcc/arm-none-eabi/4.3.2/libgcc.a(_udivsi3.o)
 .vfp11_veneer  0x0040c74c        0x0 /home/muffin/redwire/arm-2008q3/bin/../lib/gcc/arm-none-eabi/4.3.2/libgcc.a(_divsi3.o)
 .vfp11_veneer  0x0040c74c        0x0 /home/muffin/redwire/arm-2008q3/bin/../lib/gcc/arm-none-eabi/4.3.2/libgcc.a(_dvmd_tls.o)
 .vfp11_veneer  0x0040c74c        0x0 /home/muffin/redwire/arm-2008q3/bin/../lib/gcc/arm-none-eabi/4.3.2/libgcc.a(_aeabi_uldivmod.o)
 .vfp11_veneer  0x0040c74c        0x0 /home/muffin/redwire/arm-2008q3/bin/../lib/gcc/arm-none-eabi/4.3.2/libgcc.a(bpabi.o)
 .vfp11_veneer  0x0040c74c        0x0 /home/muffin/redwire/arm-2008q3/bin/../lib/gcc/arm-none-eabi/4.3.2/libgcc.a(_divdi3.o)
 .vfp11_veneer  0x0040c74c        0x0 /home/muffin/redwire/arm-2008q3/bin/../lib/gcc/arm-none-eabi/4.3.2/libgcc.a(_udivdi3.o)
 .vfp11_veneer  0x0040c74c        0x0 /home/muffin/redwire/arm-2008q3/bin/../lib/gcc/arm-none-eabi/4.3.2/libgcc.a(_clz.o)
 .vfp11_veneer  0x0040c74c        0x0 /home/muffin/redwire/arm-2008q3/bin/../lib/gcc/arm-none-eabi/4.3.2/../../../../arm-none-eabi/lib/libc.a(lib_a-ctype_.o)
 .vfp11_veneer  0x0040c74c        0x0 /home/muffin/redwire/arm-2008q3/bin/../lib/gcc/arm-none-eabi/4.3.2/../../../../arm-none-eabi/lib/libc.a(lib_a-memcmp.o)
 .vfp11_veneer  0x0040c74c        0x0 /home/muffin/redwire/arm-2008q3/bin/../lib/gcc/arm-none-eabi/4.3.2/../../../../arm-none-eabi/lib/libc.a(lib_a-memcpy.o)
 .vfp11_veneer  0x0040c74c        0x0 /home/muffin/redwire/arm-2008q3/bin/../lib/gcc/arm-none-eabi/4.3.2/../../../../arm-none-eabi/lib/libc.a(lib_a-memmove.o)
 .vfp11_veneer  0x0040c74c        0x0 /home/muffin/redwire/arm-2008q3/bin/../lib/gcc/arm-none-eabi/4.3.2/../../../../arm-none-eabi/lib/libc.a(lib_a-memset.o)
 .vfp11_veneer  0x0040c74c        0x0 /home/muffin/redwire/arm-2008q3/bin/../lib/gcc/arm-none-eabi/4.3.2/../../../../arm-none-eabi/lib/libc.a(lib_a-strchr.o)
 .vfp11_veneer  0x0040c74c        0x0 /home/muffin/redwire/arm-2008q3/bin/../lib/gcc/arm-none-eabi/4.3.2/../../../../arm-none-eabi/lib/libc.a(lib_a-strcmp.o)
 .vfp11_veneer  0x0040c74c        0x0 /home/muffin/redwire/arm-2008q3/bin/../lib/gcc/arm-none-eabi/4.3.2/../../../../arm-none-eabi/lib/libc.a(lib_a-strlen.o)
 .vfp11_veneer  0x0040c74c        0x0 /home/muffin/redwire/arm-2008q3/bin/../lib/gcc/arm-none-eabi/4.3.2/../../../../arm-none-eabi/lib/libc.a(lib_a-strncmp.o)
 *(.v4_bx)
 .v4_bx         0x0040c74c        0x0 th-12.co
 .v4_bx         0x0040c74c        0x0 obj_redbee-econotag/shell-th-12.o
 .v4_bx         0x0040c74c        0x0 obj_redbee-econotag/sen.o
 .v4_bx         0x0040c74c        0x0 obj_redbee-econotag/contiki-mc1322x-main.o
 .v4_bx         0x0040c74c        0x0 obj_redbee-econotag/start.o
 .v4_bx         0x0040c74c        0x0 contiki-redbee-econotag.a(rimeaddr.o)
 .v4_bx         0x0040c74c        0x0 contiki-redbee-econotag.a(nullmac.o)
 .v4_bx         0x0040c74c        0x0 contiki-redbee-econotag.a(nullrdc.o)
 .v4_bx         0x0040c74c        0x0 contiki-redbee-econotag.a(mac.o)
 .v4_bx         0x0040c74c        0x0 contiki-redbee-econotag.a(framer-802154.o)
 .v4_bx         0x0040c74c        0x0 contiki-redbee-econotag.a(process.o)
 .v4_bx         0x0040c74c        0x0 contiki-redbee-econotag.a(autostart.o)
 .v4_bx         0x0040c74c        0x0 contiki-redbee-econotag.a(serial-line.o)
 .v4_bx         0x0040c74c        0x0 contiki-redbee-econotag.a(etimer.o)
 .v4_bx         0x0040c74c        0x0 contiki-redbee-econotag.a(ctimer.o)
 .v4_bx         0x0040c74c        0x0 contiki-redbee-econotag.a(random.o)
 .v4_bx         0x0040c74c        0x0 contiki-redbee-econotag.a(ringbuf.o)
 .v4_bx         0x0040c74c        0x0 contiki-redbee-econotag.a(packetbuf.o)
 .v4_bx         0x0040c74c        0x0 contiki-redbee-econotag.a(queuebuf.o)
 .v4_bx         0x0040c74c        0x0 contiki-redbee-econotag.a(uip6.o)
 .v4_bx         0x0040c74c        0x0 contiki-redbee-econotag.a(tcpip.o)
 .v4_bx         0x0040c74c        0x0 contiki-redbee-econotag.a(uip-icmp6.o)
 .v4_bx         0x0040c74c        0x0 contiki-redbee-econotag.a(uip-nd6.o)
 .v4_bx         0x0040c74c        0x0 contiki-redbee-econotag.a(sicslowpan.o)
 .v4_bx         0x0040c74c        0x0 contiki-redbee-econotag.a(neighbor-info.o)
 .v4_bx         0x0040c74c        0x0 contiki-redbee-econotag.a(uip-ds6.o)
 .v4_bx         0x0040c74c        0x0 contiki-redbee-econotag.a(serial-shell.o)
 .v4_bx         0x0040c74c        0x0 contiki-redbee-econotag.a(shell.o)
 .v4_bx         0x0040c74c        0x0 contiki-redbee-econotag.a(clock.o)
 .v4_bx         0x0040c74c        0x0 contiki-redbee-econotag.a(button-sensor.o)
 .v4_bx         0x0040c74c        0x0 contiki-redbee-econotag.a(sensors.o)
 .v4_bx         0x0040c74c        0x0 contiki-redbee-econotag.a(watchdog.o)
 .v4_bx         0x0040c74c        0x0 contiki-redbee-econotag.a(contiki-crm.o)
 .v4_bx         0x0040c74c        0x0 contiki-redbee-econotag.a(contiki-maca.o)
 .v4_bx         0x0040c74c        0x0 contiki-redbee-econotag.a(contiki-misc.o)
 .v4_bx         0x0040c74c        0x0 contiki-redbee-econotag.a(leds.o)
 .v4_bx         0x0040c74c        0x0 contiki-redbee-econotag.a(contiki-uart.o)
 .v4_bx         0x0040c74c        0x0 contiki-redbee-econotag.a(dbg-printf.o)
 .v4_bx         0x0040c74c        0x0 contiki-redbee-econotag.a(strformat.o)
 .v4_bx         0x0040c74c        0x0 contiki-redbee-econotag.a(adc.o)
 .v4_bx         0x0040c74c        0x0 contiki-redbee-econotag.a(gpio-util.o)
 .v4_bx         0x0040c74c        0x0 contiki-redbee-econotag.a(maca.o)
 .v4_bx         0x0040c74c        0x0 contiki-redbee-econotag.a(nvm.o)
 .v4_bx         0x0040c74c        0x0 contiki-redbee-econotag.a(uart1.o)
 .v4_bx         0x0040c74c        0x0 contiki-redbee-econotag.a(default_lowleve)
 .v4_bx         0x0040c74c        0x0 contiki-redbee-econotag.a(isr.o)
 .v4_bx         0x0040c74c        0x0 contiki-redbee-econotag.a(rpl-ext-header.)
 .v4_bx         0x0040c74c        0x0 contiki-redbee-econotag.a(frame802154.o)
 .v4_bx         0x0040c74c        0x0 contiki-redbee-econotag.a(rpl.o)
 .v4_bx         0x0040c74c        0x0 contiki-redbee-econotag.a(rpl-dag.o)
 .v4_bx         0x0040c74c        0x0 contiki-redbee-econotag.a(rpl-icmp6.o)
 .v4_bx         0x0040c74c        0x0 contiki-redbee-econotag.a(rpl-timers.o)
 .v4_bx         0x0040c74c        0x0 contiki-redbee-econotag.a(rpl-of-etx.o)
 .v4_bx         0x0040c74c        0x0 contiki-redbee-econotag.a(memb.o)
 .v4_bx         0x0040c74c        0x0 contiki-redbee-econotag.a(timer.o)
 .v4_bx         0x0040c74c        0x0 contiki-redbee-econotag.a(list.o)
 .v4_bx         0x0040c74c        0x0 contiki-redbee-econotag.a(stimer.o)
 .v4_bx         0x0040c74c        0x0 contiki-redbee-econotag.a(neighbor-attr.o)
 .v4_bx         0x0040c74c        0x0 contiki-redbee-econotag.a(debug-uart.o)
 .v4_bx         0x0040c74c        0x0 contiki-redbee-econotag.a(leds-arch.o)
 .v4_bx         0x0040c74c        0x0 contiki-redbee-econotag.a(uart2.o)
 .v4_bx         0x0040c74c        0x0 /home/muffin/redwire/arm-2008q3/bin/../lib/gcc/arm-none-eabi/4.3.2/libgcc.a(_udivsi3.o)
 .v4_bx         0x0040c74c        0x0 /home/muffin/redwire/arm-2008q3/bin/../lib/gcc/arm-none-eabi/4.3.2/libgcc.a(_divsi3.o)
 .v4_bx         0x0040c74c        0x0 /home/muffin/redwire/arm-2008q3/bin/../lib/gcc/arm-none-eabi/4.3.2/libgcc.a(_dvmd_tls.o)
 .v4_bx         0x0040c74c        0x0 /home/muffin/redwire/arm-2008q3/bin/../lib/gcc/arm-none-eabi/4.3.2/libgcc.a(_aeabi_uldivmod.o)
 .v4_bx         0x0040c74c        0x0 /home/muffin/redwire/arm-2008q3/bin/../lib/gcc/arm-none-eabi/4.3.2/libgcc.a(bpabi.o)
 .v4_bx         0x0040c74c        0x0 /home/muffin/redwire/arm-2008q3/bin/../lib/gcc/arm-none-eabi/4.3.2/libgcc.a(_divdi3.o)
 .v4_bx         0x0040c74c        0x0 /home/muffin/redwire/arm-2008q3/bin/../lib/gcc/arm-none-eabi/4.3.2/libgcc.a(_udivdi3.o)
 .v4_bx         0x0040c74c        0x0 /home/muffin/redwire/arm-2008q3/bin/../lib/gcc/arm-none-eabi/4.3.2/libgcc.a(_clz.o)
 .v4_bx         0x0040c74c        0x0 /home/muffin/redwire/arm-2008q3/bin/../lib/gcc/arm-none-eabi/4.3.2/../../../../arm-none-eabi/lib/libc.a(lib_a-ctype_.o)
 .v4_bx         0x0040c74c        0x0 /home/muffin/redwire/arm-2008q3/bin/../lib/gcc/arm-none-eabi/4.3.2/../../../../arm-none-eabi/lib/libc.a(lib_a-memcmp.o)
 .v4_bx         0x0040c74c        0x0 /home/muffin/redwire/arm-2008q3/bin/../lib/gcc/arm-none-eabi/4.3.2/../../../../arm-none-eabi/lib/libc.a(lib_a-memcpy.o)
 .v4_bx         0x0040c74c        0x0 /home/muffin/redwire/arm-2008q3/bin/../lib/gcc/arm-none-eabi/4.3.2/../../../../arm-none-eabi/lib/libc.a(lib_a-memmove.o)
 .v4_bx         0x0040c74c        0x0 /home/muffin/redwire/arm-2008q3/bin/../lib/gcc/arm-none-eabi/4.3.2/../../../../arm-none-eabi/lib/libc.a(lib_a-memset.o)
 .v4_bx         0x0040c74c        0x0 /home/muffin/redwire/arm-2008q3/bin/../lib/gcc/arm-none-eabi/4.3.2/../../../../arm-none-eabi/lib/libc.a(lib_a-strchr.o)
 .v4_bx         0x0040c74c        0x0 /home/muffin/redwire/arm-2008q3/bin/../lib/gcc/arm-none-eabi/4.3.2/../../../../arm-none-eabi/lib/libc.a(lib_a-strcmp.o)
 .v4_bx         0x0040c74c        0x0 /home/muffin/redwire/arm-2008q3/bin/../lib/gcc/arm-none-eabi/4.3.2/../../../../arm-none-eabi/lib/libc.a(lib_a-strlen.o)
 .v4_bx         0x0040c74c        0x0 /home/muffin/redwire/arm-2008q3/bin/../lib/gcc/arm-none-eabi/4.3.2/../../../../arm-none-eabi/lib/libc.a(lib_a-strncmp.o)

.janus_2cc_veneer
                0x0040c74c        0x0
 .janus_2cc_veneer
                0x0040c74c        0x0 th-12.co
 .janus_2cc_veneer
                0x0040c74c        0x0 obj_redbee-econotag/shell-th-12.o
 .janus_2cc_veneer
                0x0040c74c        0x0 obj_redbee-econotag/sen.o
 .janus_2cc_veneer
                0x0040c74c        0x0 obj_redbee-econotag/contiki-mc1322x-main.o
 .janus_2cc_veneer
                0x0040c74c        0x0 obj_redbee-econotag/start.o
 .janus_2cc_veneer
                0x0040c74c        0x0 contiki-redbee-econotag.a(rimeaddr.o)
 .janus_2cc_veneer
                0x0040c74c        0x0 contiki-redbee-econotag.a(nullmac.o)
 .janus_2cc_veneer
                0x0040c74c        0x0 contiki-redbee-econotag.a(nullrdc.o)
 .janus_2cc_veneer
                0x0040c74c        0x0 contiki-redbee-econotag.a(mac.o)
 .janus_2cc_veneer
                0x0040c74c        0x0 contiki-redbee-econotag.a(framer-802154.o)
 .janus_2cc_veneer
                0x0040c74c        0x0 contiki-redbee-econotag.a(process.o)
 .janus_2cc_veneer
                0x0040c74c        0x0 contiki-redbee-econotag.a(autostart.o)
 .janus_2cc_veneer
                0x0040c74c        0x0 contiki-redbee-econotag.a(serial-line.o)
 .janus_2cc_veneer
                0x0040c74c        0x0 contiki-redbee-econotag.a(etimer.o)
 .janus_2cc_veneer
                0x0040c74c        0x0 contiki-redbee-econotag.a(ctimer.o)
 .janus_2cc_veneer
                0x0040c74c        0x0 contiki-redbee-econotag.a(random.o)
 .janus_2cc_veneer
                0x0040c74c        0x0 contiki-redbee-econotag.a(ringbuf.o)
 .janus_2cc_veneer
                0x0040c74c        0x0 contiki-redbee-econotag.a(packetbuf.o)
 .janus_2cc_veneer
                0x0040c74c        0x0 contiki-redbee-econotag.a(queuebuf.o)
 .janus_2cc_veneer
                0x0040c74c        0x0 contiki-redbee-econotag.a(uip6.o)
 .janus_2cc_veneer
                0x0040c74c        0x0 contiki-redbee-econotag.a(tcpip.o)
 .janus_2cc_veneer
                0x0040c74c        0x0 contiki-redbee-econotag.a(uip-icmp6.o)
 .janus_2cc_veneer
                0x0040c74c        0x0 contiki-redbee-econotag.a(uip-nd6.o)
 .janus_2cc_veneer
                0x0040c74c        0x0 contiki-redbee-econotag.a(sicslowpan.o)
 .janus_2cc_veneer
                0x0040c74c        0x0 contiki-redbee-econotag.a(neighbor-info.o)
 .janus_2cc_veneer
                0x0040c74c        0x0 contiki-redbee-econotag.a(uip-ds6.o)
 .janus_2cc_veneer
                0x0040c74c        0x0 contiki-redbee-econotag.a(serial-shell.o)
 .janus_2cc_veneer
                0x0040c74c        0x0 contiki-redbee-econotag.a(shell.o)
 .janus_2cc_veneer
                0x0040c74c        0x0 contiki-redbee-econotag.a(clock.o)
 .janus_2cc_veneer
                0x0040c74c        0x0 contiki-redbee-econotag.a(button-sensor.o)
 .janus_2cc_veneer
                0x0040c74c        0x0 contiki-redbee-econotag.a(sensors.o)
 .janus_2cc_veneer
                0x0040c74c        0x0 contiki-redbee-econotag.a(watchdog.o)
 .janus_2cc_veneer
                0x0040c74c        0x0 contiki-redbee-econotag.a(contiki-crm.o)
 .janus_2cc_veneer
                0x0040c74c        0x0 contiki-redbee-econotag.a(contiki-maca.o)
 .janus_2cc_veneer
                0x0040c74c        0x0 contiki-redbee-econotag.a(contiki-misc.o)
 .janus_2cc_veneer
                0x0040c74c        0x0 contiki-redbee-econotag.a(leds.o)
 .janus_2cc_veneer
                0x0040c74c        0x0 contiki-redbee-econotag.a(contiki-uart.o)
 .janus_2cc_veneer
                0x0040c74c        0x0 contiki-redbee-econotag.a(dbg-printf.o)
 .janus_2cc_veneer
                0x0040c74c        0x0 contiki-redbee-econotag.a(strformat.o)
 .janus_2cc_veneer
                0x0040c74c        0x0 contiki-redbee-econotag.a(adc.o)
 .janus_2cc_veneer
                0x0040c74c        0x0 contiki-redbee-econotag.a(gpio-util.o)
 .janus_2cc_veneer
                0x0040c74c        0x0 contiki-redbee-econotag.a(maca.o)
 .janus_2cc_veneer
                0x0040c74c        0x0 contiki-redbee-econotag.a(nvm.o)
 .janus_2cc_veneer
                0x0040c74c        0x0 contiki-redbee-econotag.a(uart1.o)
 .janus_2cc_veneer
                0x0040c74c        0x0 contiki-redbee-econotag.a(default_lowleve)
 .janus_2cc_veneer
                0x0040c74c        0x0 contiki-redbee-econotag.a(isr.o)
 .janus_2cc_veneer
                0x0040c74c        0x0 contiki-redbee-econotag.a(rpl-ext-header.)
 .janus_2cc_veneer
                0x0040c74c        0x0 contiki-redbee-econotag.a(frame802154.o)
 .janus_2cc_veneer
                0x0040c74c        0x0 contiki-redbee-econotag.a(rpl.o)
 .janus_2cc_veneer
                0x0040c74c        0x0 contiki-redbee-econotag.a(rpl-dag.o)
 .janus_2cc_veneer
                0x0040c74c        0x0 contiki-redbee-econotag.a(rpl-icmp6.o)
 .janus_2cc_veneer
                0x0040c74c        0x0 contiki-redbee-econotag.a(rpl-timers.o)
 .janus_2cc_veneer
                0x0040c74c        0x0 contiki-redbee-econotag.a(rpl-of-etx.o)
 .janus_2cc_veneer
                0x0040c74c        0x0 contiki-redbee-econotag.a(memb.o)
 .janus_2cc_veneer
                0x0040c74c        0x0 contiki-redbee-econotag.a(timer.o)
 .janus_2cc_veneer
                0x0040c74c        0x0 contiki-redbee-econotag.a(list.o)
 .janus_2cc_veneer
                0x0040c74c        0x0 contiki-redbee-econotag.a(stimer.o)
 .janus_2cc_veneer
                0x0040c74c        0x0 contiki-redbee-econotag.a(neighbor-attr.o)
 .janus_2cc_veneer
                0x0040c74c        0x0 contiki-redbee-econotag.a(debug-uart.o)
 .janus_2cc_veneer
                0x0040c74c        0x0 contiki-redbee-econotag.a(leds-arch.o)
 .janus_2cc_veneer
                0x0040c74c        0x0 contiki-redbee-econotag.a(uart2.o)
 .janus_2cc_veneer
                0x0040c74c        0x0 /home/muffin/redwire/arm-2008q3/bin/../lib/gcc/arm-none-eabi/4.3.2/libgcc.a(_udivsi3.o)
 .janus_2cc_veneer
                0x0040c74c        0x0 /home/muffin/redwire/arm-2008q3/bin/../lib/gcc/arm-none-eabi/4.3.2/libgcc.a(_divsi3.o)
 .janus_2cc_veneer
                0x0040c74c        0x0 /home/muffin/redwire/arm-2008q3/bin/../lib/gcc/arm-none-eabi/4.3.2/libgcc.a(_dvmd_tls.o)
 .janus_2cc_veneer
                0x0040c74c        0x0 /home/muffin/redwire/arm-2008q3/bin/../lib/gcc/arm-none-eabi/4.3.2/libgcc.a(_aeabi_uldivmod.o)
 .janus_2cc_veneer
                0x0040c74c        0x0 /home/muffin/redwire/arm-2008q3/bin/../lib/gcc/arm-none-eabi/4.3.2/libgcc.a(bpabi.o)
 .janus_2cc_veneer
                0x0040c74c        0x0 /home/muffin/redwire/arm-2008q3/bin/../lib/gcc/arm-none-eabi/4.3.2/libgcc.a(_divdi3.o)
 .janus_2cc_veneer
                0x0040c74c        0x0 /home/muffin/redwire/arm-2008q3/bin/../lib/gcc/arm-none-eabi/4.3.2/libgcc.a(_udivdi3.o)
 .janus_2cc_veneer
                0x0040c74c        0x0 /home/muffin/redwire/arm-2008q3/bin/../lib/gcc/arm-none-eabi/4.3.2/libgcc.a(_clz.o)
 .janus_2cc_veneer
                0x0040c74c        0x0 /home/muffin/redwire/arm-2008q3/bin/../lib/gcc/arm-none-eabi/4.3.2/../../../../arm-none-eabi/lib/libc.a(lib_a-ctype_.o)
 .janus_2cc_veneer
                0x0040c74c        0x0 /home/muffin/redwire/arm-2008q3/bin/../lib/gcc/arm-none-eabi/4.3.2/../../../../arm-none-eabi/lib/libc.a(lib_a-memcmp.o)
 .janus_2cc_veneer
                0x0040c74c        0x0 /home/muffin/redwire/arm-2008q3/bin/../lib/gcc/arm-none-eabi/4.3.2/../../../../arm-none-eabi/lib/libc.a(lib_a-memcpy.o)
 .janus_2cc_veneer
                0x0040c74c        0x0 /home/muffin/redwire/arm-2008q3/bin/../lib/gcc/arm-none-eabi/4.3.2/../../../../arm-none-eabi/lib/libc.a(lib_a-memmove.o)
 .janus_2cc_veneer
                0x0040c74c        0x0 /home/muffin/redwire/arm-2008q3/bin/../lib/gcc/arm-none-eabi/4.3.2/../../../../arm-none-eabi/lib/libc.a(lib_a-memset.o)
 .janus_2cc_veneer
                0x0040c74c        0x0 /home/muffin/redwire/arm-2008q3/bin/../lib/gcc/arm-none-eabi/4.3.2/../../../../arm-none-eabi/lib/libc.a(lib_a-strchr.o)
 .janus_2cc_veneer
                0x0040c74c        0x0 /home/muffin/redwire/arm-2008q3/bin/../lib/gcc/arm-none-eabi/4.3.2/../../../../arm-none-eabi/lib/libc.a(lib_a-strcmp.o)
 .janus_2cc_veneer
                0x0040c74c        0x0 /home/muffin/redwire/arm-2008q3/bin/../lib/gcc/arm-none-eabi/4.3.2/../../../../arm-none-eabi/lib/libc.a(lib_a-strlen.o)
 .janus_2cc_veneer
                0x0040c74c        0x0 /home/muffin/redwire/arm-2008q3/bin/../lib/gcc/arm-none-eabi/4.3.2/../../../../arm-none-eabi/lib/libc.a(lib_a-strncmp.o)

.interp
 *(.interp)

.note.gnu.build-id
 *(.note.gnu.build-id)

.hash
 *(.hash)

.gnu.hash
 *(.gnu.hash)

.dynsym
 *(.dynsym)

.dynstr
 *(.dynstr)

.gnu.version
 *(.gnu.version)

.gnu.version_d
 *(.gnu.version_d)

.gnu.version_r
 *(.gnu.version_r)

.rel.dyn
 *(.rel.init)
 *(.rel.text .rel.text.* .rel.gnu.linkonce.t.*)
 *(.rel.fini)
 *(.rel.rodata .rel.rodata.* .rel.gnu.linkonce.r.*)
 *(.rel.data.rel.ro* .rel.gnu.linkonce.d.rel.ro.*)
 *(.rel.data .rel.data.* .rel.gnu.linkonce.d.*)
 *(.rel.tdata .rel.tdata.* .rel.gnu.linkonce.td.*)
 *(.rel.tbss .rel.tbss.* .rel.gnu.linkonce.tb.*)
 *(.rel.ctors)
 *(.rel.dtors)
 *(.rel.got)
 *(.rel.bss .rel.bss.* .rel.gnu.linkonce.b.*)

.rela.dyn
 *(.rela.init)
 *(.rela.text .rela.text.* .rela.gnu.linkonce.t.*)
 *(.rela.fini)
 *(.rela.rodata .rela.rodata.* .rela.gnu.linkonce.r.*)
 *(.rela.data .rela.data.* .rela.gnu.linkonce.d.*)
 *(.rela.tdata .rela.tdata.* .rela.gnu.linkonce.td.*)
 *(.rela.tbss .rela.tbss.* .rela.gnu.linkonce.tb.*)
 *(.rela.ctors)
 *(.rela.dtors)
 *(.rela.got)
 *(.rela.bss .rela.bss.* .rela.gnu.linkonce.b.*)

.rel.plt
 *(.rel.plt)

.rela.plt
 *(.rela.plt)

.init
 *(.init)

.plt
 *(.plt)

.fini
 *(.fini)
                0x0040c74c                PROVIDE (__etext, .)
                0x0040c74c                PROVIDE (_etext, .)
                0x0040c74c                PROVIDE (etext, .)

.rodata         0x0040c74c      0x858
 *(.rodata .rodata.* .gnu.linkonce.r.*)
 .rodata.autostart_processes
                0x0040c74c        0x8 th-12.co
                0x0040c74c                autostart_processes
 .rodata.str1.1
                0x0040c754       0x26 th-12.co
 .rodata.str1.1
                0x0040c77a       0x7f obj_redbee-econotag/shell-th-12.o
 .rodata.str1.1
                0x0040c7f9       0x2f obj_redbee-econotag/sen.o
                                 0x31 (size before relaxing)
 .rodata.str1.1
                0x0040c828       0xc3 obj_redbee-econotag/contiki-mc1322x-main.o
                                 0xc5 (size before relaxing)
 .rodata.addr_ff
                0x0040c8eb        0x8 obj_redbee-econotag/contiki-mc1322x-main.o
                0x0040c8eb                addr_ff
 .rodata.rimeaddr_null
                0x0040c8f3        0x8 contiki-redbee-econotag.a(rimeaddr.o)
                0x0040c8f3                rimeaddr_null
 *fill*         0x0040c8fb        0x1 00
 .rodata.nullmac_driver
                0x0040c8fc       0x1c contiki-redbee-econotag.a(nullmac.o)
                0x0040c8fc                nullmac_driver
 .rodata.str1.1
                0x0040c918        0x8 contiki-redbee-econotag.a(nullmac.o)
 .rodata.str1.1
                0x0040c920        0x8 contiki-redbee-econotag.a(nullrdc.o)
 .rodata.nullrdc_driver
                0x0040c928       0x20 contiki-redbee-econotag.a(nullrdc.o)
                0x0040c928                nullrdc_driver
 .rodata.framer_802154
                0x0040c948        0x8 contiki-redbee-econotag.a(framer-802154.o)
                0x0040c948                framer_802154
 .rodata.str1.1
                0x0040c950        0xe contiki-redbee-econotag.a(serial-line.o)
 .rodata.str1.1
                0x0040c95e        0xc contiki-redbee-econotag.a(etimer.o)
 .rodata.str1.1
                0x0040c96a        0xf contiki-redbee-econotag.a(ctimer.o)
 *fill*         0x0040c979        0x3 00
 .rodata.packetbuf
                0x0040c97c        0x4 contiki-redbee-econotag.a(packetbuf.o)
 .rodata.uip_process
                0x0040c980       0x40 contiki-redbee-econotag.a(uip6.o)
 .rodata.str1.1
                0x0040c9c0        0xd contiki-redbee-econotag.a(tcpip.o)
 .rodata.ttl_values
                0x0040c9cd        0x4 contiki-redbee-econotag.a(sicslowpan.o)
 .rodata.unc_mxconf
                0x0040c9d1        0x4 contiki-redbee-econotag.a(sicslowpan.o)
                0x0040c9d1                unc_mxconf
 .rodata.llprefix
                0x0040c9d5        0x2 contiki-redbee-econotag.a(sicslowpan.o)
                0x0040c9d5                llprefix
 .rodata.str1.1
                0x0040c9d7        0xb contiki-redbee-econotag.a(sicslowpan.o)
 *fill*         0x0040c9e2        0x2 00
 .rodata.sicslowpan_driver
                0x0040c9e4        0xc contiki-redbee-econotag.a(sicslowpan.o)
                0x0040c9e4                sicslowpan_driver
 .rodata.C.44.4070
                0x0040c9f0        0x2 contiki-redbee-econotag.a(sicslowpan.o)
 .rodata.unc_llconf
                0x0040c9f2        0x4 contiki-redbee-econotag.a(sicslowpan.o)
                0x0040c9f2                unc_llconf
 .rodata.unc_ctxconf
                0x0040c9f6        0x4 contiki-redbee-econotag.a(sicslowpan.o)
                0x0040c9f6                unc_ctxconf
 .rodata.str1.1
                0x0040c9fa       0x21 contiki-redbee-econotag.a(serial-shell.o)
                                 0x28 (size before relaxing)
 .rodata.str1.1
                0x0040ca1b      0x198 contiki-redbee-econotag.a(shell.o)
                                0x19e (size before relaxing)
 .rodata.str1.1
                0x0040cbb3        0x7 contiki-redbee-econotag.a(button-sensor.o)
 *fill*         0x0040cbba        0x2 00
 .rodata.button_sensor
                0x0040cbbc       0x10 contiki-redbee-econotag.a(button-sensor.o)
                0x0040cbbc                button_sensor
 .rodata.str1.1
                0x0040cbcc        0x8 contiki-redbee-econotag.a(sensors.o)
 .rodata.str1.1
                0x0040cbd4       0xd1 contiki-redbee-econotag.a(contiki-crm.o)
 .rodata.str1.1
                0x0040cca5        0xd contiki-redbee-econotag.a(contiki-maca.o)
 *fill*         0x0040ccb2        0x2 00
 .rodata.contiki_maca_driver
                0x0040ccb4       0x28 contiki-redbee-econotag.a(contiki-maca.o)
                0x0040ccb4                contiki_maca_driver
 .rodata.buffer.1350
                0x0040ccdc       0x10 contiki-redbee-econotag.a(strformat.o)
 .rodata.str1.1
                0x0040ccec       0x35 contiki-redbee-econotag.a(strformat.o)
                                 0x37 (size before relaxing)
 .rodata.buffer.1364
                0x0040cd21       0x10 contiki-redbee-econotag.a(strformat.o)
 *fill*         0x0040cd31        0x3 00
 .rodata.decode_status
                0x0040cd34       0x3c contiki-redbee-econotag.a(maca.o)
 .rodata.PSMVAL
                0x0040cd70       0x4c contiki-redbee-econotag.a(maca.o)
                0x0040cd70                PSMVAL
 .rodata.AIMVAL
                0x0040cdbc       0x4c contiki-redbee-econotag.a(maca.o)
                0x0040cdbc                AIMVAL
 .rodata.PAVAL  0x0040ce08       0x4c contiki-redbee-econotag.a(maca.o)
                0x0040ce08                PAVAL
 .rodata.VCODivF
                0x0040ce54       0x40 contiki-redbee-econotag.a(maca.o)
                0x0040ce54                VCODivF
 .rodata.VCODivI
                0x0040ce94       0x10 contiki-redbee-econotag.a(maca.o)
                0x0040ce94                VCODivI
 .rodata        0x0040cea4      0x100 /home/muffin/redwire/arm-2008q3/bin/../lib/gcc/arm-none-eabi/4.3.2/libgcc.a(_clz.o)
                0x0040cea4                __clz_tab

.ARM.exidx      0x0040cfa4       0x10
 .ARM.exidx     0x0040cfa4        0x8 /home/muffin/redwire/arm-2008q3/bin/../lib/gcc/arm-none-eabi/4.3.2/libgcc.a(_divdi3.o)
 .ARM.exidx     0x0040cfac        0x8 /home/muffin/redwire/arm-2008q3/bin/../lib/gcc/arm-none-eabi/4.3.2/libgcc.a(_udivdi3.o)

.rodata1
 *(.rodata1)

.eh_frame_hdr
 *(.eh_frame_hdr)

.eh_frame
 *(.eh_frame)

.gcc_except_table
 *(.gcc_except_table .gcc_except_table.*)
                0x0040cfb4                . = ALIGN (0x4)
                0x0040cfb4                . = (0x4 DATA_SEGMENT_ALIGN 0x4)

.eh_frame
 *(.eh_frame)

.gcc_except_table
 *(.gcc_except_table .gcc_except_table.*)

.tdata
 *(.tdata .tdata.* .gnu.linkonce.td.*)

.tbss
 *(.tbss .tbss.* .gnu.linkonce.tb.*)
 *(.tcommon)

.preinit_array  0x0040cfb4        0x0
                0x0040cfb4                PROVIDE (__preinit_array_start, .)
 *(.preinit_array)
                0x0040cfb4                PROVIDE (__preinit_array_end, .)

.init_array     0x0040cfb4        0x0
                0x0040cfb4                PROVIDE (__init_array_start, .)
 *(SORT(.init_array.*))
 *(.init_array)
                0x0040cfb4                PROVIDE (__init_array_end, .)

.fini_array     0x0040cfb4        0x0
                0x0040cfb4                PROVIDE (__fini_array_start, .)
 *(.fini_array)
 *(SORT(.fini_array.*))
                0x0040cfb4                PROVIDE (__fini_array_end, .)

.ctors
 *crtbegin.o(.ctors)
 *crtbegin?.o(.ctors)
 *(EXCLUDE_FILE(*crtend?.o *crtend.o) .ctors)
 *(SORT(.ctors.*))
 *(.ctors)

.dtors
 *crtbegin.o(.dtors)
 *crtbegin?.o(.dtors)
 *(EXCLUDE_FILE(*crtend?.o *crtend.o) .dtors)
 *(SORT(.dtors.*))
 *(.dtors)

.jcr
 *(.jcr)

.data.rel.ro
 *(.data.rel.ro.local* .gnu.linkonce.d.rel.ro.local.*)
 *(.data.rel.ro* .gnu.linkonce.d.rel.ro.*)

.dynamic
 *(.dynamic)
                0x0040cfb4                . = (. DATA_SEGMENT_RELRO_END 0x0)

.got
 *(.got.plt)
 *(.got)

.data           0x0040cfb4      0x27c
                0x0040cfb4                __data_start = .
 *(.data .data.* .gnu.linkonce.d.*)
 .data.th_12    0x0040cfb4       0x10 th-12.co
                0x0040cfb4                th_12
 .data.info_command
                0x0040cfc4       0x14 obj_redbee-econotag/shell-th-12.o
 .data.shell_info_process
                0x0040cfd8       0x10 obj_redbee-econotag/shell-th-12.o
                0x0040cfd8                shell_info_process
 .data.sen_process
                0x0040cfe8       0x10 obj_redbee-econotag/sen.o
                0x0040cfe8                sen_process
 .data.sensors  0x0040cff8        0x8 obj_redbee-econotag/contiki-mc1322x-main.o
                0x0040cff8                sensors
 .data.serial_line_process
                0x0040d000       0x10 contiki-redbee-econotag.a(serial-line.o)
                0x0040d000                serial_line_process
 .data.etimer_process
                0x0040d010       0x10 contiki-redbee-econotag.a(etimer.o)
                0x0040d010                etimer_process
 .data.ctimer_process
                0x0040d020       0x10 contiki-redbee-econotag.a(ctimer.o)
                0x0040d020                ctimer_process
 .data.bufmem   0x0040d030        0xc contiki-redbee-econotag.a(queuebuf.o)
 .data.refbufmem
                0x0040d03c        0xc contiki-redbee-econotag.a(queuebuf.o)
 .data.buframmem
                0x0040d048        0xc contiki-redbee-econotag.a(queuebuf.o)
 .data.tcpip_process
                0x0040d054       0x10 contiki-redbee-econotag.a(tcpip.o)
                0x0040d054                tcpip_process
 .data.attr_etx
                0x0040d064       0x10 contiki-redbee-econotag.a(neighbor-info.o)
                0x0040d064                attr_etx
 .data.attr_timestamp
                0x0040d074       0x10 contiki-redbee-econotag.a(neighbor-info.o)
                0x0040d074                attr_timestamp
 .data.serial_shell_process
                0x0040d084       0x10 contiki-redbee-econotag.a(serial-shell.o)
                0x0040d084                serial_shell_process
 .data.help_command
                0x0040d094       0x14 contiki-redbee-econotag.a(shell.o)
 .data.exit_command
                0x0040d0a8       0x14 contiki-redbee-econotag.a(shell.o)
 .data.help_command_process
                0x0040d0bc       0x10 contiki-redbee-econotag.a(shell.o)
                0x0040d0bc                help_command_process
 .data.shell_server_process
                0x0040d0cc       0x10 contiki-redbee-econotag.a(shell.o)
                0x0040d0cc                shell_server_process
 .data.killall_command
                0x0040d0dc       0x14 contiki-redbee-econotag.a(shell.o)
 .data.shell_null_process
                0x0040d0f0       0x10 contiki-redbee-econotag.a(shell.o)
                0x0040d0f0                shell_null_process
 .data.shell_killall_process
                0x0040d100       0x10 contiki-redbee-econotag.a(shell.o)
                0x0040d100                shell_killall_process
 .data.shell_exit_process
                0x0040d110       0x10 contiki-redbee-econotag.a(shell.o)
                0x0040d110                shell_exit_process
 .data.shell_process
                0x0040d120       0x10 contiki-redbee-econotag.a(shell.o)
                0x0040d120                shell_process
 .data.quit_command
                0x0040d130       0x14 contiki-redbee-econotag.a(shell.o)
 .data.shell_prompt_text
                0x0040d144        0xa contiki-redbee-econotag.a(shell.o)
 *fill*         0x0040d14e        0x2 00
 .data.kill_command
                0x0040d150       0x14 contiki-redbee-econotag.a(shell.o)
 .data.shell_kill_process
                0x0040d164       0x10 contiki-redbee-econotag.a(shell.o)
                0x0040d164                shell_kill_process
 .data.null_command
                0x0040d174       0x14 contiki-redbee-econotag.a(shell.o)
 .data.question_command
                0x0040d188       0x14 contiki-redbee-econotag.a(shell.o)
 .data.sensors_process
                0x0040d19c       0x10 contiki-redbee-econotag.a(sensors.o)
                0x0040d19c                sensors_process
 .data.contiki_maca_process
                0x0040d1ac       0x10 contiki-redbee-econotag.a(contiki-maca.o)
                0x0040d1ac                contiki_maca_process
 .data.ctxt     0x0040d1bc        0x8 contiki-redbee-econotag.a(dbg-printf.o)
 .data.prm_mode
                0x0040d1c4        0x1 contiki-redbee-econotag.a(maca.o)
                0x0040d1c4                prm_mode
 .data.ctov     0x0040d1c5       0x10 contiki-redbee-econotag.a(maca.o)
                0x0040d1c5                ctov
 *fill*         0x0040d1d5        0x3 00
 .data.get_lqi  0x0040d1d8        0x4 contiki-redbee-econotag.a(maca.o)
                0x0040d1d8                get_lqi
 .data.nvm_read
                0x0040d1dc        0x4 contiki-redbee-econotag.a(nvm.o)
                0x0040d1dc                nvm_read
 .data.nvm_detect
                0x0040d1e0        0x4 contiki-redbee-econotag.a(nvm.o)
                0x0040d1e0                nvm_detect
 .data.nvm_write
                0x0040d1e4        0x4 contiki-redbee-econotag.a(nvm.o)
                0x0040d1e4                nvm_write
 .data.tmr_isr_funcs
                0x0040d1e8       0x10 contiki-redbee-econotag.a(isr.o)
 .data.parent_memb
                0x0040d1f8        0xc contiki-redbee-econotag.a(rpl-dag.o)
 .data.dao_sequence
                0x0040d204        0x1 contiki-redbee-econotag.a(rpl-icmp6.o)
 *fill*         0x0040d205        0x3 00
 .data.rpl_of_etx
                0x0040d208       0x1c contiki-redbee-econotag.a(rpl-of-etx.o)
                0x0040d208                rpl_of_etx
 .data.neighbor_addr_mem
                0x0040d224        0xc contiki-redbee-econotag.a(neighbor-attr.o)

.data1
 *(.data1)
                0x0040d230                _edata = .
                0x0040d230                PROVIDE (edata, .)

.stack          0x0040d230      0x720
                0x0040d230                __stack_start__ = .
                0x0040d330                . = (. + IRQ_STACK_SIZE)
 *fill*         0x0040d230      0x100 00
                0x0040d330                . = ALIGN (0x4)
                0x0040d330                __irq_stack_top__ = .
                0x0040d430                . = (. + FIQ_STACK_SIZE)
 *fill*         0x0040d330      0x100 00
                0x0040d430                . = ALIGN (0x4)
                0x0040d430                __fiq_stack_top__ = .
                0x0040d530                . = (. + SVC_STACK_SIZE)
 *fill*         0x0040d430      0x100 00
                0x0040d530                . = ALIGN (0x4)
                0x0040d530                __svc_stack_top__ = .
                0x0040d540                . = (. + ABT_STACK_SIZE)
 *fill*         0x0040d530       0x10 00
                0x0040d540                . = ALIGN (0x4)
                0x0040d540                __abt_stack_top__ = .
                0x0040d550                . = (. + UND_STACK_SIZE)
 *fill*         0x0040d540       0x10 00
                0x0040d550                . = ALIGN (0x4)
                0x0040d550                __und_stack_top__ = .
                0x0040d950                . = (. + SYS_STACK_SIZE)
 *fill*         0x0040d550      0x400 00
                0x0040d950                . = ALIGN (0x4)
                0x0040d950                __sys_stack_top__ = .
                0x0040d950                __stack_end__ = .
                0x0040d950                __bss_start = .
                0x0040d950                __bss_start__ = .

.bss            0x0040d950     0x3ccc
 *(.dynbss)
 *(.bss .bss.* .gnu.linkonce.b.*)
 .bss.sys       0x0040d950       0x72 th-12.co
                0x0040d950                sys
 .bss.checksum  0x0040d9c2        0x2 obj_redbee-econotag/sen.o
                0x0040d9c2                checksum
 .bss.last      0x0040d9c4        0x2 obj_redbee-econotag/sen.o
                0x0040d9c4                last
 .bss.started   0x0040d9c6        0x1 obj_redbee-econotag/sen.o
                0x0040d9c6                started
 *fill*         0x0040d9c7        0x1 00
 .bss.et_count  0x0040d9c8       0x10 obj_redbee-econotag/sen.o
                0x0040d9c8                et_count
 .bss.time1     0x0040d9d8        0x2 obj_redbee-econotag/sen.o
                0x0040d9d8                time1
 *fill*         0x0040d9da        0x2 00
 .bss.et_sen    0x0040d9dc       0x10 obj_redbee-econotag/sen.o
                0x0040d9dc                et_sen
 .bss.sensors_flags
                0x0040d9ec        0x2 obj_redbee-econotag/contiki-mc1322x-main.o
                0x0040d9ec                sensors_flags
 .bss.node_id   0x0040d9ee        0x2 obj_redbee-econotag/contiki-mc1322x-main.o
                0x0040d9ee                node_id
 .bss.rimeaddr_node_addr
                0x0040d9f0        0x8 contiki-redbee-econotag.a(rimeaddr.o)
                0x0040d9f0                rimeaddr_node_addr
 .bss.received_seqnos
                0x0040d9f8       0x90 contiki-redbee-econotag.a(nullrdc.o)
 .bss.mac_dsn   0x0040da88        0x1 contiki-redbee-econotag.a(framer-802154.o)
 .bss.initialized
                0x0040da89        0x1 contiki-redbee-econotag.a(framer-802154.o)
 .bss.process_maxevents
                0x0040da8a        0x1 contiki-redbee-econotag.a(process.o)
                0x0040da8a                process_maxevents
 .bss.fevent    0x0040da8b        0x1 contiki-redbee-econotag.a(process.o)
 .bss.events    0x0040da8c       0x60 contiki-redbee-econotag.a(process.o)
 .bss.nevents   0x0040daec        0x1 contiki-redbee-econotag.a(process.o)
 *fill*         0x0040daed        0x3 00
 .bss.receiver.2494
                0x0040daf0        0x4 contiki-redbee-econotag.a(process.o)
 .bss.data.2493
                0x0040daf4        0x4 contiki-redbee-econotag.a(process.o)
 .bss.lastevent
                0x0040daf8        0x1 contiki-redbee-econotag.a(process.o)
 *fill*         0x0040daf9        0x3 00
 .bss.process_current
                0x0040dafc        0x4 contiki-redbee-econotag.a(process.o)
                0x0040dafc                process_current
 .bss.process_list
                0x0040db00        0x4 contiki-redbee-econotag.a(process.o)
                0x0040db00                process_list
 .bss.poll_requested
                0x0040db04        0x1 contiki-redbee-econotag.a(process.o)
 *fill*         0x0040db05        0x3 00
 .bss.p.2495    0x0040db08        0x4 contiki-redbee-econotag.a(process.o)
 .bss.snum.2538
                0x0040db0c        0x1 contiki-redbee-econotag.a(process.o)
 .bss.ev.2492   0x0040db0d        0x1 contiki-redbee-econotag.a(process.o)
 .bss.rxbuf_data
                0x0040db0e       0x80 contiki-redbee-econotag.a(serial-line.o)
 .bss.overflow.2048
                0x0040db8e        0x1 contiki-redbee-econotag.a(serial-line.o)
 .bss.serial_line_event_message
                0x0040db8f        0x1 contiki-redbee-econotag.a(serial-line.o)
                0x0040db8f                serial_line_event_message
 .bss.rxbuf     0x0040db90        0x8 contiki-redbee-econotag.a(serial-line.o)
 .bss.buf.2058  0x0040db98       0x80 contiki-redbee-econotag.a(serial-line.o)
 .bss.ptr.2059  0x0040dc18        0x4 contiki-redbee-econotag.a(serial-line.o)
 .bss.timerlist
                0x0040dc1c        0x4 contiki-redbee-econotag.a(etimer.o)
 .bss.next_expiration
                0x0040dc20        0x4 contiki-redbee-econotag.a(etimer.o)
 .bss.ctimer_list_list
                0x0040dc24        0x4 contiki-redbee-econotag.a(ctimer.o)
 .bss.initialized
                0x0040dc28        0x1 contiki-redbee-econotag.a(ctimer.o)
 *fill*         0x0040dc29        0x3 00
 .bss.packetbufptr
                0x0040dc2c        0x4 contiki-redbee-econotag.a(packetbuf.o)
 .bss.hdrptr    0x0040dc30        0x1 contiki-redbee-econotag.a(packetbuf.o)
 *fill*         0x0040dc31        0x1 00
 .bss.buflen    0x0040dc32        0x2 contiki-redbee-econotag.a(packetbuf.o)
 .bss.packetbuf_attrs
                0x0040dc34       0x30 contiki-redbee-econotag.a(packetbuf.o)
                0x0040dc34                packetbuf_attrs
 .bss.packetbuf_aligned
                0x0040dc64       0xb2 contiki-redbee-econotag.a(packetbuf.o)
 .bss.packetbuf_addrs
                0x0040dd16       0x20 contiki-redbee-econotag.a(packetbuf.o)
                0x0040dd16                packetbuf_addrs
 .bss.bufptr    0x0040dd36        0x2 contiki-redbee-econotag.a(packetbuf.o)
 .bss.buframmem_memb_count
                0x0040dd38       0x10 contiki-redbee-econotag.a(queuebuf.o)
 .bss.bufmem_memb_mem
                0x0040dd48       0x40 contiki-redbee-econotag.a(queuebuf.o)
 .bss.buframmem_memb_mem
                0x0040dd88      0xd20 contiki-redbee-econotag.a(queuebuf.o)
 .bss.refbufmem_memb_mem
                0x0040eaa8       0x78 contiki-redbee-econotag.a(queuebuf.o)
 .bss.refbufmem_memb_count
                0x0040eb20        0x2 contiki-redbee-econotag.a(queuebuf.o)
 .bss.bufmem_memb_count
                0x0040eb22       0x10 contiki-redbee-econotag.a(queuebuf.o)
 *fill*         0x0040eb32        0x2 00
 .bss.uip_conn  0x0040eb34        0x4 contiki-redbee-econotag.a(uip6.o)
                0x0040eb34                uip_conn
 .bss.uip_conns
                0x0040eb38       0xc0 contiki-redbee-econotag.a(uip6.o)
                0x0040eb38                uip_conns
 .bss.uip_sappdata
                0x0040ebf8        0x4 contiki-redbee-econotag.a(uip6.o)
                0x0040ebf8                uip_sappdata
 .bss.uip_aligned_buf
                0x0040ebfc      0x514 contiki-redbee-econotag.a(uip6.o)
                0x0040ebfc                uip_aligned_buf
 .bss.uip_lladdr
                0x0040f110        0x8 contiki-redbee-econotag.a(uip6.o)
                0x0040f110                uip_lladdr
 .bss.uip_ext_bitmap
                0x0040f118        0x1 contiki-redbee-econotag.a(uip6.o)
                0x0040f118                uip_ext_bitmap
 *fill*         0x0040f119        0x1 00
 .bss.uip_slen  0x0040f11a        0x2 contiki-redbee-econotag.a(uip6.o)
                0x0040f11a                uip_slen
 .bss.uip_udp_conns
                0x0040f11c      0x180 contiki-redbee-econotag.a(uip6.o)
                0x0040f11c                uip_udp_conns
 .bss.tmp16     0x0040f29c        0x2 contiki-redbee-econotag.a(uip6.o)
 .bss.uip_len   0x0040f29e        0x2 contiki-redbee-econotag.a(uip6.o)
                0x0040f29e                uip_len
 .bss.uip_appdata
                0x0040f2a0        0x4 contiki-redbee-econotag.a(uip6.o)
                0x0040f2a0                uip_appdata
 .bss.iss       0x0040f2a4        0x4 contiki-redbee-econotag.a(uip6.o)
 .bss.uip_flags
                0x0040f2a8        0x1 contiki-redbee-econotag.a(uip6.o)
                0x0040f2a8                uip_flags
 .bss.uip_acc32
                0x0040f2a9        0x4 contiki-redbee-econotag.a(uip6.o)
                0x0040f2a9                uip_acc32
 .bss.uip_ext_opt_offset
                0x0040f2ad        0x1 contiki-redbee-econotag.a(uip6.o)
                0x0040f2ad                uip_ext_opt_offset
 .bss.lastport  0x0040f2ae        0x2 contiki-redbee-econotag.a(uip6.o)
 .bss.uip_udp_conn
                0x0040f2b0        0x4 contiki-redbee-econotag.a(uip6.o)
                0x0040f2b0                uip_udp_conn
 .bss.c         0x0040f2b4        0x1 contiki-redbee-econotag.a(uip6.o)
 *fill*         0x0040f2b5        0x1 00
 .bss.uip_listenports
                0x0040f2b6       0x10 contiki-redbee-econotag.a(uip6.o)
                0x0040f2b6                uip_listenports
 *fill*         0x0040f2c6        0x2 00
 .bss.uip_next_hdr
                0x0040f2c8        0x4 contiki-redbee-econotag.a(uip6.o)
                0x0040f2c8                uip_next_hdr
 .bss.uip_ext_len
                0x0040f2cc        0x1 contiki-redbee-econotag.a(uip6.o)
                0x0040f2cc                uip_ext_len
 .bss.opt       0x0040f2cd        0x1 contiki-redbee-econotag.a(uip6.o)
 .bss.tcpip_event
                0x0040f2ce        0x1 contiki-redbee-econotag.a(tcpip.o)
                0x0040f2ce                tcpip_event
 .bss.i.4802    0x0040f2cf        0x1 contiki-redbee-econotag.a(tcpip.o)
 .bss.s         0x0040f2d0       0x44 contiki-redbee-econotag.a(tcpip.o)
 .bss.i.4689    0x0040f314        0x1 contiki-redbee-econotag.a(tcpip.o)
 .bss.i.4777    0x0040f315        0x1 contiki-redbee-econotag.a(tcpip.o)
 *fill*         0x0040f316        0x2 00
 .bss.periodic  0x0040f318       0x10 contiki-redbee-econotag.a(tcpip.o)
 .bss.outputfunc
                0x0040f328        0x4 contiki-redbee-econotag.a(tcpip.o)
 .bss.tmp_ipaddr
                0x0040f32c       0x10 contiki-redbee-econotag.a(uip-icmp6.o)
 .bss.defrt     0x0040f33c        0x4 contiki-redbee-econotag.a(uip-nd6.o)
 .bss.nbr       0x0040f340        0x4 contiki-redbee-econotag.a(uip-nd6.o)
 .bss.nd6_opt_llao
                0x0040f344        0x4 contiki-redbee-econotag.a(uip-nd6.o)
 .bss.nd6_opt_offset
                0x0040f348        0x1 contiki-redbee-econotag.a(uip-nd6.o)
 *fill*         0x0040f349        0x3 00
 .bss.addr      0x0040f34c        0x4 contiki-redbee-econotag.a(uip-nd6.o)
 .bss.context   0x0040f350        0x4 contiki-redbee-econotag.a(sicslowpan.o)
 .bss.rime_ptr  0x0040f354        0x4 contiki-redbee-econotag.a(sicslowpan.o)
 .bss.hc06_ptr  0x0040f358        0x4 contiki-redbee-econotag.a(sicslowpan.o)
 .bss.frag_sender
                0x0040f35c        0x8 contiki-redbee-econotag.a(sicslowpan.o)
                0x0040f35c                frag_sender
 .bss.uncomp_hdr_len
                0x0040f364        0x1 contiki-redbee-econotag.a(sicslowpan.o)
 *fill*         0x0040f365        0x3 00
 .bss.reass_timer
                0x0040f368        0x8 contiki-redbee-econotag.a(sicslowpan.o)
 .bss.sicslowpan_len
                0x0040f370        0x2 contiki-redbee-econotag.a(sicslowpan.o)
 .bss.addr_contexts
                0x0040f372       0x14 contiki-redbee-econotag.a(sicslowpan.o)
 .bss.rime_payload_len
                0x0040f386        0x1 contiki-redbee-econotag.a(sicslowpan.o)
 *fill*         0x0040f387        0x1 00
 .bss.sicslowpan_aligned_buf
                0x0040f388      0x514 contiki-redbee-econotag.a(sicslowpan.o)
 .bss.processed_ip_in_len
                0x0040f89c        0x2 contiki-redbee-econotag.a(sicslowpan.o)
 .bss.rime_hdr_len
                0x0040f89e        0x1 contiki-redbee-econotag.a(sicslowpan.o)
 *fill*         0x0040f89f        0x1 00
 .bss.last_tx_status
                0x0040f8a0        0x4 contiki-redbee-econotag.a(sicslowpan.o)
 .bss.my_tag    0x0040f8a4        0x2 contiki-redbee-econotag.a(sicslowpan.o)
 .bss.reass_tag
                0x0040f8a6        0x2 contiki-redbee-econotag.a(sicslowpan.o)
 .bss.callback  0x0040f8a8        0x4 contiki-redbee-econotag.a(sicslowpan.o)
 .bss._attr_etx_mem
                0x0040f8ac        0xc contiki-redbee-econotag.a(neighbor-info.o)
 .bss.subscriber_callback
                0x0040f8b8        0x4 contiki-redbee-econotag.a(neighbor-info.o)
 .bss._attr_timestamp_mem
                0x0040f8bc       0x30 contiki-redbee-econotag.a(neighbor-info.o)
 .bss.uip_ds6_netif_addr_list_offset
                0x0040f8ec        0x1 contiki-redbee-econotag.a(uip-ds6.o)
                0x0040f8ec                uip_ds6_netif_addr_list_offset
 *fill*         0x0040f8ed        0x3 00
 .bss.uip_ds6_routing_table
                0x0040f8f0      0x618 contiki-redbee-econotag.a(uip-ds6.o)
                0x0040f8f0                uip_ds6_routing_table
 .bss.uip_ds6_nbr_cache
                0x0040ff08      0x618 contiki-redbee-econotag.a(uip-ds6.o)
                0x0040ff08                uip_ds6_nbr_cache
 .bss.uip_ds6_if
                0x00410520       0xf8 contiki-redbee-econotag.a(uip-ds6.o)
                0x00410520                uip_ds6_if
 .bss.locroute  0x00410618        0x4 contiki-redbee-econotag.a(uip-ds6.o)
 .bss.locprefix
                0x0041061c        0x4 contiki-redbee-econotag.a(uip-ds6.o)
 .bss.locmaddr  0x00410620        0x4 contiki-redbee-econotag.a(uip-ds6.o)
 .bss.uip_ds6_addr_size
                0x00410624        0x1 contiki-redbee-econotag.a(uip-ds6.o)
                0x00410624                uip_ds6_addr_size
 *fill*         0x00410625        0x3 00
 .bss.locaddr   0x00410628        0x4 contiki-redbee-econotag.a(uip-ds6.o)
 .bss.uip_ds6_defrt_list
                0x0041062c       0x40 contiki-redbee-econotag.a(uip-ds6.o)
                0x0041062c                uip_ds6_defrt_list
 .bss.loc_fipaddr
                0x0041066c       0x10 contiki-redbee-econotag.a(uip-ds6.o)
 .bss.uip_ds6_prefix_list
                0x0041067c       0x60 contiki-redbee-econotag.a(uip-ds6.o)
                0x0041067c                uip_ds6_prefix_list
 .bss.uip_ds6_timer_periodic
                0x004106dc       0x10 contiki-redbee-econotag.a(uip-ds6.o)
                0x004106dc                uip_ds6_timer_periodic
 .bss.locipaddr
                0x004106ec        0x4 contiki-redbee-econotag.a(uip-ds6.o)
 .bss.locnbr    0x004106f0        0x4 contiki-redbee-econotag.a(uip-ds6.o)
 .bss.locdefrt  0x004106f4        0x4 contiki-redbee-econotag.a(uip-ds6.o)
 .bss.front_process
                0x004106f8        0x4 contiki-redbee-econotag.a(shell.o)
 .bss.shell_event_input
                0x004106fc        0x4 contiki-redbee-econotag.a(shell.o)
                0x004106fc                shell_event_input
 .bss.time_offset
                0x00410700        0x4 contiki-redbee-econotag.a(shell.o)
 .bss.started_process.4186
                0x00410704        0x4 contiki-redbee-econotag.a(shell.o)
 .bss.etimer.4224
                0x00410708       0x10 contiki-redbee-econotag.a(shell.o)
 .bss.commands_list
                0x00410718        0x4 contiki-redbee-econotag.a(shell.o)
 .bss.current_clock
                0x0041071c        0x4 contiki-redbee-econotag.a(clock.o)
 .bss.seconds   0x00410720        0x4 contiki-redbee-econotag.a(clock.o)
                0x00410720                seconds
 .bss.debouncetimer
                0x00410724        0x8 contiki-redbee-econotag.a(button-sensor.o)
 .bss.i.2093    0x0041072c        0x4 contiki-redbee-econotag.a(sensors.o)
 .bss.num_sensors
                0x00410730        0x1 contiki-redbee-econotag.a(sensors.o)
 *fill*         0x00410731        0x3 00
 .bss.events.2094
                0x00410734        0x4 contiki-redbee-econotag.a(sensors.o)
 .bss.sensors_event
                0x00410738        0x1 contiki-redbee-econotag.a(sensors.o)
                0x00410738                sensors_event
 *fill*         0x00410739        0x3 00
 .bss.cal_rtc_secs
                0x0041073c        0x4 contiki-redbee-econotag.a(contiki-crm.o)
                0x0041073c                cal_rtc_secs
 .bss.prepped_p
                0x00410740       0x94 contiki-redbee-econotag.a(contiki-maca.o)
 .bss.tx_status
                0x004107d4        0x1 contiki-redbee-econotag.a(contiki-maca.o)
 .bss.contiki_maca_request_on
                0x004107d5        0x1 contiki-redbee-econotag.a(contiki-maca.o)
 .bss.contiki_maca_request_off
                0x004107d6        0x1 contiki-redbee-econotag.a(contiki-maca.o)
 .bss.tx_complete
                0x004107d7        0x1 contiki-redbee-econotag.a(contiki-maca.o)
 .bss.leds      0x004107d8        0x1 contiki-redbee-econotag.a(leds.o)
 .bss.invert    0x004107d9        0x1 contiki-redbee-econotag.a(leds.o)
 *fill*         0x004107da        0x2 00
 .bss.uart1_input_handler
                0x004107dc        0x4 contiki-redbee-econotag.a(contiki-uart.o)
                0x004107dc                uart1_input_handler
 .bss.adc_reading
                0x004107e0       0x12 contiki-redbee-econotag.a(adc.o)
                0x004107e0                adc_reading
 *fill*         0x004107f2        0x2 00
 .bss.dma_rx    0x004107f4        0x4 contiki-redbee-econotag.a(maca.o)
 .bss.fcs_mode  0x004107f8        0x1 contiki-redbee-econotag.a(maca.o)
                0x004107f8                fcs_mode
 *fill*         0x004107f9        0x3 00
 .bss.free_head
                0x004107fc        0x4 contiki-redbee-econotag.a(maca.o)
 .bss.last_entry.4879
                0x00410800        0x4 contiki-redbee-econotag.a(maca.o)
 .bss.ack_p.5201
                0x00410804        0x4 contiki-redbee-econotag.a(maca.o)
 .bss.last_post
                0x00410808        0x1 contiki-redbee-econotag.a(maca.o)
 *fill*         0x00410809        0x3 00
 .bss.rx_head   0x0041080c        0x4 contiki-redbee-econotag.a(maca.o)
                0x0041080c                rx_head
 .bss.maca_entry
                0x00410810        0x4 contiki-redbee-econotag.a(maca.o)
                0x00410810                maca_entry
 .bss.dummy_ack
                0x00410814       0x94 contiki-redbee-econotag.a(maca.o)
 .bss.dma_tx    0x004108a8        0x4 contiki-redbee-econotag.a(maca.o)
 .bss.last_time.4878
                0x004108ac        0x4 contiki-redbee-econotag.a(maca.o)
 .bss.tx_head   0x004108b0        0x4 contiki-redbee-econotag.a(maca.o)
                0x004108b0                tx_head
 .bss.rx_end    0x004108b4        0x4 contiki-redbee-econotag.a(maca.o)
 .bss.tx_end    0x004108b8        0x4 contiki-redbee-econotag.a(maca.o)
 .bss.u1_tx_tail
                0x004108bc        0x4 contiki-redbee-econotag.a(uart1.o)
                0x004108bc                u1_tx_tail
 .bss.u1_tx_head
                0x004108c0        0x4 contiki-redbee-econotag.a(uart1.o)
                0x004108c0                u1_tx_head
 .bss.u1_rx_tail
                0x004108c4        0x4 contiki-redbee-econotag.a(uart1.o)
                0x004108c4                u1_rx_tail
 .bss.u1_rx_buf
                0x004108c8       0x60 contiki-redbee-econotag.a(uart1.o)
                0x004108c8                u1_rx_buf
 .bss.u1_rx_head
                0x00410928        0x4 contiki-redbee-econotag.a(uart1.o)
                0x00410928                u1_rx_head
 .bss.u1_tx_buf
                0x0041092c      0x400 contiki-redbee-econotag.a(uart1.o)
                0x0041092c                u1_tx_buf
 .bss.default_instance
                0x00410d2c        0x4 contiki-redbee-econotag.a(rpl-dag.o)
                0x00410d2c                default_instance
 .bss.parent_memb_memb_mem
                0x00410d30      0x280 contiki-redbee-econotag.a(rpl-dag.o)
 .bss.parent_memb_memb_count
                0x00410fb0       0x10 contiki-redbee-econotag.a(rpl-dag.o)
 .bss.instance_table
                0x00410fc0       0xf4 contiki-redbee-econotag.a(rpl-dag.o)
                0x00410fc0                instance_table
 .bss.periodic_timer
                0x004110b4       0x20 contiki-redbee-econotag.a(rpl-timers.o)
 .bss.next_dis  0x004110d4        0x2 contiki-redbee-econotag.a(rpl-timers.o)
 .bss.dio_send_ok
                0x004110d6        0x1 contiki-redbee-econotag.a(rpl-timers.o)
 .bss.neighbor_addr_mem_memb_count
                0x004110d7        0xc contiki-redbee-econotag.a(neighbor-attr.o)
 *fill*         0x004110e3        0x1 00
 .bss.neighbor_attrs_list
                0x004110e4        0x4 contiki-redbee-econotag.a(neighbor-attr.o)
 .bss.neighbor_addr_mem_memb_mem
                0x004110e8       0xc0 contiki-redbee-econotag.a(neighbor-attr.o)
 .bss.neighbor_addrs_list
                0x004111a8        0x4 contiki-redbee-econotag.a(neighbor-attr.o)
 .bss.u2_tx_buf
                0x004111ac      0x400 contiki-redbee-econotag.a(uart2.o)
                0x004111ac                u2_tx_buf
 .bss.u2_rx_head
                0x004115ac        0x4 contiki-redbee-econotag.a(uart2.o)
                0x004115ac                u2_rx_head
 .bss.u2_rx_buf
                0x004115b0       0x60 contiki-redbee-econotag.a(uart2.o)
                0x004115b0                u2_rx_buf
 .bss.u2_tx_tail
                0x00411610        0x4 contiki-redbee-econotag.a(uart2.o)
                0x00411610                u2_tx_tail
 .bss.u2_tx_head
                0x00411614        0x4 contiki-redbee-econotag.a(uart2.o)
                0x00411614                u2_tx_head
 .bss.u2_rx_tail
                0x00411618        0x4 contiki-redbee-econotag.a(uart2.o)
                0x00411618                u2_rx_tail
 *(COMMON)
                0x0041161c                . = ALIGN ((. != 0x0)?0x4:0x1)
                0x0041161c                _bss_end__ = .
                0x0041161c                __bss_end__ = .
                0x0041161c                . = ALIGN (0x4)

.heap           0x0041161c     0x1000
                0x0041161c                __heap_start__ = .
                0x0041161c                PROVIDE (__HEAP_START, .)
 *(.heap)
                0x0041261c                . = (. + HEAP_SIZE)
 *fill*         0x0041161c     0x1000 00
                0x0041261c                . = ALIGN (0x4)
                0x0041261c                __heap_end__ = .
                0x0041261c                PROVIDE (__HEAP_END, .)
                0x0041261c                . = ALIGN (0x4)
                0x0041261c                __end__ = .
                0x0041261c                _end = .
                0x0041261c                PROVIDE (end, .)
                0x0041261c                . = DATA_SEGMENT_END (.)

.stab           0x00000000      0x210
 *(.stab)
 .stab          0x00000000      0x210 obj_redbee-econotag/start.o

.stabstr        0x00000000       0x33
 *(.stabstr)
 .stabstr       0x00000000       0x33 obj_redbee-econotag/start.o

.stab.excl
 *(.stab.excl)

.stab.exclstr
 *(.stab.exclstr)

.stab.index
 *(.stab.index)

.stab.indexstr
 *(.stab.indexstr)

.comment        0x00000000      0x9d8
 *(.comment)
 .comment       0x00000000       0x2a th-12.co
 .comment       0x0000002a       0x2a obj_redbee-econotag/shell-th-12.o
 .comment       0x00000054       0x2a obj_redbee-econotag/sen.o
 .comment       0x0000007e       0x2a obj_redbee-econotag/contiki-mc1322x-main.o
 .comment       0x000000a8       0x2a contiki-redbee-econotag.a(rimeaddr.o)
 .comment       0x000000d2       0x2a contiki-redbee-econotag.a(nullmac.o)
 .comment       0x000000fc       0x2a contiki-redbee-econotag.a(nullrdc.o)
 .comment       0x00000126       0x2a contiki-redbee-econotag.a(mac.o)
 .comment       0x00000150       0x2a contiki-redbee-econotag.a(framer-802154.o)
 .comment       0x0000017a       0x2a contiki-redbee-econotag.a(process.o)
 .comment       0x000001a4       0x2a contiki-redbee-econotag.a(autostart.o)
 .comment       0x000001ce       0x2a contiki-redbee-econotag.a(serial-line.o)
 .comment       0x000001f8       0x2a contiki-redbee-econotag.a(etimer.o)
 .comment       0x00000222       0x2a contiki-redbee-econotag.a(ctimer.o)
 .comment       0x0000024c       0x2a contiki-redbee-econotag.a(random.o)
 .comment       0x00000276       0x2a contiki-redbee-econotag.a(ringbuf.o)
 .comment       0x000002a0       0x2a contiki-redbee-econotag.a(packetbuf.o)
 .comment       0x000002ca       0x2a contiki-redbee-econotag.a(queuebuf.o)
 .comment       0x000002f4       0x2a contiki-redbee-econotag.a(uip6.o)
 .comment       0x0000031e       0x2a contiki-redbee-econotag.a(tcpip.o)
 .comment       0x00000348       0x2a contiki-redbee-econotag.a(uip-icmp6.o)
 .comment       0x00000372       0x2a contiki-redbee-econotag.a(uip-nd6.o)
 .comment       0x0000039c       0x2a contiki-redbee-econotag.a(sicslowpan.o)
 .comment       0x000003c6       0x2a contiki-redbee-econotag.a(neighbor-info.o)
 .comment       0x000003f0       0x2a contiki-redbee-econotag.a(uip-ds6.o)
 .comment       0x0000041a       0x2a contiki-redbee-econotag.a(serial-shell.o)
 .comment       0x00000444       0x2a contiki-redbee-econotag.a(shell.o)
 .comment       0x0000046e       0x2a contiki-redbee-econotag.a(clock.o)
 .comment       0x00000498       0x2a contiki-redbee-econotag.a(button-sensor.o)
 .comment       0x000004c2       0x2a contiki-redbee-econotag.a(sensors.o)
 .comment       0x000004ec       0x2a contiki-redbee-econotag.a(watchdog.o)
 .comment       0x00000516       0x2a contiki-redbee-econotag.a(contiki-crm.o)
 .comment       0x00000540       0x2a contiki-redbee-econotag.a(contiki-maca.o)
 .comment       0x0000056a       0x2a contiki-redbee-econotag.a(contiki-misc.o)
 .comment       0x00000594       0x2a contiki-redbee-econotag.a(leds.o)
 .comment       0x000005be       0x2a contiki-redbee-econotag.a(contiki-uart.o)
 .comment       0x000005e8       0x2a contiki-redbee-econotag.a(dbg-printf.o)
 .comment       0x00000612       0x2a contiki-redbee-econotag.a(strformat.o)
 .comment       0x0000063c       0x2a contiki-redbee-econotag.a(adc.o)
 .comment       0x00000666       0x2a contiki-redbee-econotag.a(gpio-util.o)
 .comment       0x00000690       0x2a contiki-redbee-econotag.a(maca.o)
 .comment       0x000006ba       0x2a contiki-redbee-econotag.a(nvm.o)
 .comment       0x000006e4       0x2a contiki-redbee-econotag.a(uart1.o)
 .comment       0x0000070e       0x2a contiki-redbee-econotag.a(default_lowleve)
 .comment       0x00000738       0x2a contiki-redbee-econotag.a(isr.o)
 .comment       0x00000762       0x2a contiki-redbee-econotag.a(rpl-ext-header.)
 .comment       0x0000078c       0x2a contiki-redbee-econotag.a(frame802154.o)
 .comment       0x000007b6       0x2a contiki-redbee-econotag.a(rpl.o)
 .comment       0x000007e0       0x2a contiki-redbee-econotag.a(rpl-dag.o)
 .comment       0x0000080a       0x2a contiki-redbee-econotag.a(rpl-icmp6.o)
 .comment       0x00000834       0x2a contiki-redbee-econotag.a(rpl-timers.o)
 .comment       0x0000085e       0x2a contiki-redbee-econotag.a(rpl-of-etx.o)
 .comment       0x00000888       0x2a contiki-redbee-econotag.a(memb.o)
 .comment       0x000008b2       0x2a contiki-redbee-econotag.a(timer.o)
 .comment       0x000008dc       0x2a contiki-redbee-econotag.a(list.o)
 .comment       0x00000906       0x2a contiki-redbee-econotag.a(stimer.o)
 .comment       0x00000930       0x2a contiki-redbee-econotag.a(neighbor-attr.o)
 .comment       0x0000095a       0x2a contiki-redbee-econotag.a(debug-uart.o)
 .comment       0x00000984       0x2a contiki-redbee-econotag.a(leds-arch.o)
 .comment       0x000009ae       0x2a contiki-redbee-econotag.a(uart2.o)

.debug
 *(.debug)

.line
 *(.line)

.debug_srcinfo
 *(.debug_srcinfo)

.debug_sfnames
 *(.debug_sfnames)

.debug_aranges  0x00000000     0x1430
 *(.debug_aranges)
 .debug_aranges
                0x00000000       0x20 th-12.co
 .debug_aranges
                0x00000020       0x28 obj_redbee-econotag/shell-th-12.o
 .debug_aranges
                0x00000048       0x38 obj_redbee-econotag/sen.o
 .debug_aranges
                0x00000080       0x48 obj_redbee-econotag/contiki-mc1322x-main.o
 .debug_aranges
                0x000000c8       0x30 contiki-redbee-econotag.a(rimeaddr.o)
 .debug_aranges
                0x000000f8       0x48 contiki-redbee-econotag.a(nullmac.o)
 .debug_aranges
                0x00000140       0x58 contiki-redbee-econotag.a(nullrdc.o)
 .debug_aranges
                0x00000198       0x20 contiki-redbee-econotag.a(mac.o)
 .debug_aranges
                0x000001b8       0x40 contiki-redbee-econotag.a(framer-802154.o)
 .debug_aranges
                0x000001f8       0x80 contiki-redbee-econotag.a(process.o)
 .debug_aranges
                0x00000278       0x28 contiki-redbee-econotag.a(autostart.o)
 .debug_aranges
                0x000002a0       0x30 contiki-redbee-econotag.a(serial-line.o)
 .debug_aranges
                0x000002d0       0x88 contiki-redbee-econotag.a(etimer.o)
 .debug_aranges
                0x00000358       0x50 contiki-redbee-econotag.a(ctimer.o)
 .debug_aranges
                0x000003a8       0x28 contiki-redbee-econotag.a(random.o)
 .debug_aranges
                0x000003d0       0x40 contiki-redbee-econotag.a(ringbuf.o)
 .debug_aranges
                0x00000410       0xc0 contiki-redbee-econotag.a(packetbuf.o)
 .debug_aranges
                0x000004d0       0x68 contiki-redbee-econotag.a(queuebuf.o)
 .debug_aranges
                0x00000538       0xb0 contiki-redbee-econotag.a(uip6.o)
 .debug_aranges
                0x000005e8       0x98 contiki-redbee-econotag.a(tcpip.o)
 .debug_aranges
                0x00000680       0x30 contiki-redbee-econotag.a(uip-icmp6.o)
 .debug_aranges
                0x000006b0       0x38 contiki-redbee-econotag.a(uip-nd6.o)
 .debug_aranges
                0x000006e8       0x88 contiki-redbee-econotag.a(sicslowpan.o)
 .debug_aranges
                0x00000770       0x48 contiki-redbee-econotag.a(neighbor-info.o)
 .debug_aranges
                0x000007b8      0x128 contiki-redbee-econotag.a(uip-ds6.o)
 .debug_aranges
                0x000008e0       0x40 contiki-redbee-econotag.a(serial-shell.o)
 .debug_aranges
                0x00000920       0xd8 contiki-redbee-econotag.a(shell.o)
 .debug_aranges
                0x000009f8       0x60 contiki-redbee-econotag.a(clock.o)
 .debug_aranges
                0x00000a58       0x38 contiki-redbee-econotag.a(button-sensor.o)
 .debug_aranges
                0x00000a90       0x48 contiki-redbee-econotag.a(sensors.o)
 .debug_aranges
                0x00000ad8       0x40 contiki-redbee-econotag.a(watchdog.o)
 .debug_aranges
                0x00000b18       0x30 contiki-redbee-econotag.a(contiki-crm.o)
 .debug_aranges
                0x00000b48       0x88 contiki-redbee-econotag.a(contiki-maca.o)
 .debug_aranges
                0x00000bd0       0x38 contiki-redbee-econotag.a(contiki-misc.o)
 .debug_aranges
                0x00000c08       0x58 contiki-redbee-econotag.a(leds.o)
 .debug_aranges
                0x00000c60       0x20 contiki-redbee-econotag.a(contiki-uart.o)
 .debug_aranges
                0x00000c80       0x28 contiki-redbee-econotag.a(dbg-printf.o)
 .debug_aranges
                0x00000ca8       0x40 contiki-redbee-econotag.a(strformat.o)
 .debug_aranges
                0x00000ce8       0x38 contiki-redbee-econotag.a(adc.o)
 .debug_aranges
                0x00000d20       0x50 contiki-redbee-econotag.a(gpio-util.o)
 .debug_aranges
                0x00000d70      0x110 contiki-redbee-econotag.a(maca.o)
 .debug_aranges
                0x00000e80       0x30 contiki-redbee-econotag.a(uart1.o)
 .debug_aranges
                0x00000eb0       0x30 contiki-redbee-econotag.a(default_lowleve)
 .debug_aranges
                0x00000ee0       0x28 contiki-redbee-econotag.a(isr.o)
 .debug_aranges
                0x00000f08       0x40 contiki-redbee-econotag.a(rpl-ext-header.)
 .debug_aranges
                0x00000f48       0x40 contiki-redbee-econotag.a(frame802154.o)
 .debug_aranges
                0x00000f88       0x50 contiki-redbee-econotag.a(rpl.o)
 .debug_aranges
                0x00000fd8      0x120 contiki-redbee-econotag.a(rpl-dag.o)
 .debug_aranges
                0x000010f8       0x60 contiki-redbee-econotag.a(rpl-icmp6.o)
 .debug_aranges
                0x00001158       0x50 contiki-redbee-econotag.a(rpl-timers.o)
 .debug_aranges
                0x000011a8       0x50 contiki-redbee-econotag.a(rpl-of-etx.o)
 .debug_aranges
                0x000011f8       0x38 contiki-redbee-econotag.a(memb.o)
 .debug_aranges
                0x00001230       0x40 contiki-redbee-econotag.a(timer.o)
 .debug_aranges
                0x00001270       0x78 contiki-redbee-econotag.a(list.o)
 .debug_aranges
                0x000012e8       0x48 contiki-redbee-econotag.a(stimer.o)
 .debug_aranges
                0x00001330       0x80 contiki-redbee-econotag.a(neighbor-attr.o)
 .debug_aranges
                0x000013b0       0x20 contiki-redbee-econotag.a(debug-uart.o)
 .debug_aranges
                0x000013d0       0x30 contiki-redbee-econotag.a(leds-arch.o)
 .debug_aranges
                0x00001400       0x30 contiki-redbee-econotag.a(uart2.o)

.debug_pubnames
                0x00000000     0x2925
 *(.debug_pubnames)
 .debug_pubnames
                0x00000000       0x3c th-12.co
 .debug_pubnames
                0x0000003c       0x3d obj_redbee-econotag/shell-th-12.o
 .debug_pubnames
                0x00000079       0x88 obj_redbee-econotag/sen.o
 .debug_pubnames
                0x00000101       0xa2 obj_redbee-econotag/contiki-mc1322x-main.o
 .debug_pubnames
                0x000001a3       0x79 contiki-redbee-econotag.a(rimeaddr.o)
 .debug_pubnames
                0x0000021c       0x25 contiki-redbee-econotag.a(nullmac.o)
 .debug_pubnames
                0x00000241       0x25 contiki-redbee-econotag.a(nullrdc.o)
 .debug_pubnames
                0x00000266       0x2d contiki-redbee-econotag.a(mac.o)
 .debug_pubnames
                0x00000293       0x24 contiki-redbee-econotag.a(framer-802154.o)
 .debug_pubnames
                0x000002b7      0x10d contiki-redbee-econotag.a(process.o)
 .debug_pubnames
                0x000003c4       0x39 contiki-redbee-econotag.a(autostart.o)
 .debug_pubnames
                0x000003fd       0x78 contiki-redbee-econotag.a(serial-line.o)
 .debug_pubnames
                0x00000475      0x109 contiki-redbee-econotag.a(etimer.o)
 .debug_pubnames
                0x0000057e       0x8b contiki-redbee-econotag.a(ctimer.o)
 .debug_pubnames
                0x00000609       0x32 contiki-redbee-econotag.a(random.o)
 .debug_pubnames
                0x0000063b       0x69 contiki-redbee-econotag.a(ringbuf.o)
 .debug_pubnames
                0x000006a4      0x22c contiki-redbee-econotag.a(packetbuf.o)
 .debug_pubnames
                0x000008d0       0xff contiki-redbee-econotag.a(queuebuf.o)
 .debug_pubnames
                0x000009cf      0x216 contiki-redbee-econotag.a(uip6.o)
 .debug_pubnames
                0x00000be5      0x12c contiki-redbee-econotag.a(tcpip.o)
 .debug_pubnames
                0x00000d11       0x61 contiki-redbee-econotag.a(uip-icmp6.o)
 .debug_pubnames
                0x00000d72       0x52 contiki-redbee-econotag.a(uip-nd6.o)
 .debug_pubnames
                0x00000dc4       0xb4 contiki-redbee-econotag.a(sicslowpan.o)
 .debug_pubnames
                0x00000e78       0xab contiki-redbee-econotag.a(neighbor-info.o)
 .debug_pubnames
                0x00000f23      0x403 contiki-redbee-econotag.a(uip-ds6.o)
 .debug_pubnames
                0x00001326       0x7a contiki-redbee-econotag.a(serial-shell.o)
 .debug_pubnames
                0x000013a0      0x1c4 contiki-redbee-econotag.a(shell.o)
 .debug_pubnames
                0x00001564       0xbb contiki-redbee-econotag.a(clock.o)
 .debug_pubnames
                0x0000161f       0x31 contiki-redbee-econotag.a(button-sensor.o)
 .debug_pubnames
                0x00001650       0x80 contiki-redbee-econotag.a(sensors.o)
 .debug_pubnames
                0x000016d0       0x73 contiki-redbee-econotag.a(watchdog.o)
 .debug_pubnames
                0x00001743       0x54 contiki-redbee-econotag.a(contiki-crm.o)
 .debug_pubnames
                0x00001797      0x17c contiki-redbee-econotag.a(contiki-maca.o)
 .debug_pubnames
                0x00001913       0x39 contiki-redbee-econotag.a(contiki-misc.o)
 .debug_pubnames
                0x0000194c       0x75 contiki-redbee-econotag.a(leds.o)
 .debug_pubnames
                0x000019c1       0x3e contiki-redbee-econotag.a(contiki-uart.o)
 .debug_pubnames
                0x000019ff       0x1d contiki-redbee-econotag.a(dbg-printf.o)
 .debug_pubnames
                0x00001a1c       0x32 contiki-redbee-econotag.a(strformat.o)
 .debug_pubnames
                0x00001a4e       0x5a contiki-redbee-econotag.a(adc.o)
 .debug_pubnames
                0x00001aa8       0x8e contiki-redbee-econotag.a(gpio-util.o)
 .debug_pubnames
                0x00001b36      0x389 contiki-redbee-econotag.a(maca.o)
 .debug_pubnames
                0x00001ebf       0x5a contiki-redbee-econotag.a(nvm.o)
 .debug_pubnames
                0x00001f19       0x96 contiki-redbee-econotag.a(uart1.o)
 .debug_pubnames
                0x00001faf       0x46 contiki-redbee-econotag.a(default_lowleve)
 .debug_pubnames
                0x00001ff5       0x39 contiki-redbee-econotag.a(isr.o)
 .debug_pubnames
                0x0000202e       0x8c contiki-redbee-econotag.a(rpl-ext-header.)
 .debug_pubnames
                0x000020ba       0x56 contiki-redbee-econotag.a(frame802154.o)
 .debug_pubnames
                0x00002110       0x9c contiki-redbee-econotag.a(rpl.o)
 .debug_pubnames
                0x000021ac      0x265 contiki-redbee-econotag.a(rpl-dag.o)
 .debug_pubnames
                0x00002411       0x64 contiki-redbee-econotag.a(rpl-icmp6.o)
 .debug_pubnames
                0x00002475       0x5c contiki-redbee-econotag.a(rpl-timers.o)
 .debug_pubnames
                0x000024d1       0x21 contiki-redbee-econotag.a(rpl-of-etx.o)
 .debug_pubnames
                0x000024f2       0x4d contiki-redbee-econotag.a(memb.o)
 .debug_pubnames
                0x0000253f       0x68 contiki-redbee-econotag.a(timer.o)
 .debug_pubnames
                0x000025a7       0xc3 contiki-redbee-econotag.a(list.o)
 .debug_pubnames
                0x0000266a       0x80 contiki-redbee-econotag.a(stimer.o)
 .debug_pubnames
                0x000026ea      0x137 contiki-redbee-econotag.a(neighbor-attr.o)
 .debug_pubnames
                0x00002821       0x25 contiki-redbee-econotag.a(debug-uart.o)
 .debug_pubnames
                0x00002846       0x49 contiki-redbee-econotag.a(leds-arch.o)
 .debug_pubnames
                0x0000288f       0x96 contiki-redbee-econotag.a(uart2.o)

.debug_info     0x00000000    0xbb4da
 *(.debug_info .gnu.linkonce.wi.*)
 .debug_info    0x00000000     0x9000 th-12.co
 .debug_info    0x00009000     0x8fb3 obj_redbee-econotag/shell-th-12.o
 .debug_info    0x00011fb3     0x925d obj_redbee-econotag/sen.o
 .debug_info    0x0001b210     0x988b obj_redbee-econotag/contiki-mc1322x-main.o
 .debug_info    0x00024a9b      0xbea contiki-redbee-econotag.a(rimeaddr.o)
 .debug_info    0x00025685      0xe8a contiki-redbee-econotag.a(nullmac.o)
 .debug_info    0x0002650f     0x1254 contiki-redbee-econotag.a(nullrdc.o)
 .debug_info    0x00027763      0xb83 contiki-redbee-econotag.a(mac.o)
 .debug_info    0x000282e6     0x1067 contiki-redbee-econotag.a(framer-802154.o)
 .debug_info    0x0002934d      0xf8a contiki-redbee-econotag.a(process.o)
 .debug_info    0x0002a2d7      0xc20 contiki-redbee-econotag.a(autostart.o)
 .debug_info    0x0002aef7      0xd66 contiki-redbee-econotag.a(serial-line.o)
 .debug_info    0x0002bc5d      0xf21 contiki-redbee-econotag.a(etimer.o)
 .debug_info    0x0002cb7e      0xecb contiki-redbee-econotag.a(ctimer.o)
 .debug_info    0x0002da49      0xb1c contiki-redbee-econotag.a(random.o)
 .debug_info    0x0002e565      0xc2b contiki-redbee-econotag.a(ringbuf.o)
 .debug_info    0x0002f190     0x102f contiki-redbee-econotag.a(packetbuf.o)
 .debug_info    0x000301bf     0x1116 contiki-redbee-econotag.a(queuebuf.o)
 .debug_info    0x000312d5     0x1a01 contiki-redbee-econotag.a(uip6.o)
 .debug_info    0x00032cd6     0x1b36 contiki-redbee-econotag.a(tcpip.o)
 .debug_info    0x0003480c      0xf90 contiki-redbee-econotag.a(uip-icmp6.o)
 .debug_info    0x0003579c     0x11dd contiki-redbee-econotag.a(uip-nd6.o)
 .debug_info    0x00036979     0x18a9 contiki-redbee-econotag.a(sicslowpan.o)
 .debug_info    0x00038222      0xf58 contiki-redbee-econotag.a(neighbor-info.o)
 .debug_info    0x0003917a     0x1aee contiki-redbee-econotag.a(uip-ds6.o)
 .debug_info    0x0003ac68      0xda5 contiki-redbee-econotag.a(serial-shell.o)
 .debug_info    0x0003ba0d     0x1769 contiki-redbee-econotag.a(shell.o)
 .debug_info    0x0003d176     0x8ed8 contiki-redbee-econotag.a(clock.o)
 .debug_info    0x0004604e     0x8e79 contiki-redbee-econotag.a(button-sensor.o)
 .debug_info    0x0004eec7      0xe0b contiki-redbee-econotag.a(sensors.o)
 .debug_info    0x0004fcd2       0x89 contiki-redbee-econotag.a(watchdog.o)
 .debug_info    0x0004fd5b     0x8d88 contiki-redbee-econotag.a(contiki-crm.o)
 .debug_info    0x00058ae3     0x95b3 contiki-redbee-econotag.a(contiki-maca.o)
 .debug_info    0x00062096     0x8dc8 contiki-redbee-econotag.a(contiki-misc.o)
 .debug_info    0x0006ae5e      0xc2b contiki-redbee-econotag.a(leds.o)
 .debug_info    0x0006ba89       0x85 contiki-redbee-econotag.a(contiki-uart.o)
 .debug_info    0x0006bb0e      0x1c2 contiki-redbee-econotag.a(dbg-printf.o)
 .debug_info    0x0006bcd0      0x71d contiki-redbee-econotag.a(strformat.o)
 .debug_info    0x0006c3ed     0x10fc contiki-redbee-econotag.a(adc.o)
 .debug_info    0x0006d4e9     0x8f27 contiki-redbee-econotag.a(gpio-util.o)
 .debug_info    0x00076410     0x9b5c contiki-redbee-econotag.a(maca.o)
 .debug_info    0x0007ff6c      0x1f8 contiki-redbee-econotag.a(nvm.o)
 .debug_info    0x00080164     0x8e37 contiki-redbee-econotag.a(uart1.o)
 .debug_info    0x00088f9b     0x8e71 contiki-redbee-econotag.a(default_lowleve)
 .debug_info    0x00091e0c     0x8dc1 contiki-redbee-econotag.a(isr.o)
 .debug_info    0x0009abcd     0x1643 contiki-redbee-econotag.a(rpl-ext-header.)
 .debug_info    0x0009c210      0xed6 contiki-redbee-econotag.a(frame802154.o)
 .debug_info    0x0009d0e6     0x1738 contiki-redbee-econotag.a(rpl.o)
 .debug_info    0x0009e81e     0x221c contiki-redbee-econotag.a(rpl-dag.o)
 .debug_info    0x000a0a3a     0x200d contiki-redbee-econotag.a(rpl-icmp6.o)
 .debug_info    0x000a2a47     0x140a contiki-redbee-econotag.a(rpl-timers.o)
 .debug_info    0x000a3e51     0x1541 contiki-redbee-econotag.a(rpl-of-etx.o)
 .debug_info    0x000a5392      0xc1a contiki-redbee-econotag.a(memb.o)
 .debug_info    0x000a5fac      0xbeb contiki-redbee-econotag.a(timer.o)
 .debug_info    0x000a6b97      0x322 contiki-redbee-econotag.a(list.o)
 .debug_info    0x000a6eb9      0xc00 contiki-redbee-econotag.a(stimer.o)
 .debug_info    0x000a7ab9     0x11fa contiki-redbee-econotag.a(neighbor-attr.o)
 .debug_info    0x000a8cb3      0xb22 contiki-redbee-econotag.a(debug-uart.o)
 .debug_info    0x000a97d5     0x8ece contiki-redbee-econotag.a(leds-arch.o)
 .debug_info    0x000b26a3     0x8e37 contiki-redbee-econotag.a(uart2.o)

.debug_abbrev   0x00000000     0x8885
 *(.debug_abbrev)
 .debug_abbrev  0x00000000      0x244 th-12.co
 .debug_abbrev  0x00000244      0x245 obj_redbee-econotag/shell-th-12.o
 .debug_abbrev  0x00000489      0x291 obj_redbee-econotag/sen.o
 .debug_abbrev  0x0000071a      0x39d obj_redbee-econotag/contiki-mc1322x-main.o
 .debug_abbrev  0x00000ab7      0x1b2 contiki-redbee-econotag.a(rimeaddr.o)
 .debug_abbrev  0x00000c69      0x287 contiki-redbee-econotag.a(nullmac.o)
 .debug_abbrev  0x00000ef0      0x33d contiki-redbee-econotag.a(nullrdc.o)
 .debug_abbrev  0x0000122d      0x162 contiki-redbee-econotag.a(mac.o)
 .debug_abbrev  0x0000138f      0x2c5 contiki-redbee-econotag.a(framer-802154.o)
 .debug_abbrev  0x00001654      0x31a contiki-redbee-econotag.a(process.o)
 .debug_abbrev  0x0000196e      0x197 contiki-redbee-econotag.a(autostart.o)
 .debug_abbrev  0x00001b05      0x250 contiki-redbee-econotag.a(serial-line.o)
 .debug_abbrev  0x00001d55      0x28f contiki-redbee-econotag.a(etimer.o)
 .debug_abbrev  0x00001fe4      0x262 contiki-redbee-econotag.a(ctimer.o)
 .debug_abbrev  0x00002246      0x146 contiki-redbee-econotag.a(random.o)
 .debug_abbrev  0x0000238c      0x194 contiki-redbee-econotag.a(ringbuf.o)
 .debug_abbrev  0x00002520      0x2e3 contiki-redbee-econotag.a(packetbuf.o)
 .debug_abbrev  0x00002803      0x2bb contiki-redbee-econotag.a(queuebuf.o)
 .debug_abbrev  0x00002abe      0x334 contiki-redbee-econotag.a(uip6.o)
 .debug_abbrev  0x00002df2      0x462 contiki-redbee-econotag.a(tcpip.o)
 .debug_abbrev  0x00003254      0x1e7 contiki-redbee-econotag.a(uip-icmp6.o)
 .debug_abbrev  0x0000343b      0x287 contiki-redbee-econotag.a(uip-nd6.o)
 .debug_abbrev  0x000036c2      0x413 contiki-redbee-econotag.a(sicslowpan.o)
 .debug_abbrev  0x00003ad5      0x2f4 contiki-redbee-econotag.a(neighbor-info.o)
 .debug_abbrev  0x00003dc9      0x2bc contiki-redbee-econotag.a(uip-ds6.o)
 .debug_abbrev  0x00004085      0x26a contiki-redbee-econotag.a(serial-shell.o)
 .debug_abbrev  0x000042ef      0x425 contiki-redbee-econotag.a(shell.o)
 .debug_abbrev  0x00004714      0x204 contiki-redbee-econotag.a(clock.o)
 .debug_abbrev  0x00004918      0x1d0 contiki-redbee-econotag.a(button-sensor.o)
 .debug_abbrev  0x00004ae8      0x265 contiki-redbee-econotag.a(sensors.o)
 .debug_abbrev  0x00004d4d       0x2b contiki-redbee-econotag.a(watchdog.o)
 .debug_abbrev  0x00004d78      0x1ad contiki-redbee-econotag.a(contiki-crm.o)
 .debug_abbrev  0x00004f25      0x377 contiki-redbee-econotag.a(contiki-maca.o)
 .debug_abbrev  0x0000529c      0x1df contiki-redbee-econotag.a(contiki-misc.o)
 .debug_abbrev  0x0000547b      0x192 contiki-redbee-econotag.a(leds.o)
 .debug_abbrev  0x0000560d       0x7e contiki-redbee-econotag.a(contiki-uart.o)
 .debug_abbrev  0x0000568b      0x112 contiki-redbee-econotag.a(dbg-printf.o)
 .debug_abbrev  0x0000579d      0x242 contiki-redbee-econotag.a(strformat.o)
 .debug_abbrev  0x000059df      0x1bd contiki-redbee-econotag.a(adc.o)
 .debug_abbrev  0x00005b9c      0x1db contiki-redbee-econotag.a(gpio-util.o)
 .debug_abbrev  0x00005d77      0x39f contiki-redbee-econotag.a(maca.o)
 .debug_abbrev  0x00006116       0x89 contiki-redbee-econotag.a(nvm.o)
 .debug_abbrev  0x0000619f      0x1cb contiki-redbee-econotag.a(uart1.o)
 .debug_abbrev  0x0000636a      0x1b8 contiki-redbee-econotag.a(default_lowleve)
 .debug_abbrev  0x00006522      0x1c5 contiki-redbee-econotag.a(isr.o)
 .debug_abbrev  0x000066e7      0x2bb contiki-redbee-econotag.a(rpl-ext-header.)
 .debug_abbrev  0x000069a2      0x20e contiki-redbee-econotag.a(frame802154.o)
 .debug_abbrev  0x00006bb0      0x275 contiki-redbee-econotag.a(rpl.o)
 .debug_abbrev  0x00006e25      0x439 contiki-redbee-econotag.a(rpl-dag.o)
 .debug_abbrev  0x0000725e      0x3f4 contiki-redbee-econotag.a(rpl-icmp6.o)
 .debug_abbrev  0x00007652      0x22e contiki-redbee-econotag.a(rpl-timers.o)
 .debug_abbrev  0x00007880      0x289 contiki-redbee-econotag.a(rpl-of-etx.o)
 .debug_abbrev  0x00007b09      0x18b contiki-redbee-econotag.a(memb.o)
 .debug_abbrev  0x00007c94      0x181 contiki-redbee-econotag.a(timer.o)
 .debug_abbrev  0x00007e15      0x179 contiki-redbee-econotag.a(list.o)
 .debug_abbrev  0x00007f8e      0x174 contiki-redbee-econotag.a(stimer.o)
 .debug_abbrev  0x00008102      0x2ce contiki-redbee-econotag.a(neighbor-attr.o)
 .debug_abbrev  0x000083d0      0x137 contiki-redbee-econotag.a(debug-uart.o)
 .debug_abbrev  0x00008507      0x1b3 contiki-redbee-econotag.a(leds-arch.o)
 .debug_abbrev  0x000086ba      0x1cb contiki-redbee-econotag.a(uart2.o)

.debug_line     0x00000000     0x8357
 *(.debug_line)
 .debug_line    0x00000000      0x1a6 th-12.co
 .debug_line    0x000001a6      0x192 obj_redbee-econotag/shell-th-12.o
 .debug_line    0x00000338      0x23f obj_redbee-econotag/sen.o
 .debug_line    0x00000577      0x3ce obj_redbee-econotag/contiki-mc1322x-main.o
 .debug_line    0x00000945      0x127 contiki-redbee-econotag.a(rimeaddr.o)
 .debug_line    0x00000a6c      0x1ac contiki-redbee-econotag.a(nullmac.o)
 .debug_line    0x00000c18      0x23a contiki-redbee-econotag.a(nullrdc.o)
 .debug_line    0x00000e52       0xf7 contiki-redbee-econotag.a(mac.o)
 .debug_line    0x00000f49      0x1ef contiki-redbee-econotag.a(framer-802154.o)
 .debug_line    0x00001138      0x263 contiki-redbee-econotag.a(process.o)
 .debug_line    0x0000139b      0x126 contiki-redbee-econotag.a(autostart.o)
 .debug_line    0x000014c1      0x181 contiki-redbee-econotag.a(serial-line.o)
 .debug_line    0x00001642      0x289 contiki-redbee-econotag.a(etimer.o)
 .debug_line    0x000018cb      0x22e contiki-redbee-econotag.a(ctimer.o)
 .debug_line    0x00001af9       0xfa contiki-redbee-econotag.a(random.o)
 .debug_line    0x00001bf3      0x14f contiki-redbee-econotag.a(ringbuf.o)
 .debug_line    0x00001d42      0x2c9 contiki-redbee-econotag.a(packetbuf.o)
 .debug_line    0x0000200b      0x228 contiki-redbee-econotag.a(queuebuf.o)
 .debug_line    0x00002233      0x580 contiki-redbee-econotag.a(uip6.o)
 .debug_line    0x000027b3      0x3a7 contiki-redbee-econotag.a(tcpip.o)
 .debug_line    0x00002b5a      0x1d7 contiki-redbee-econotag.a(uip-icmp6.o)
 .debug_line    0x00002d31      0x25c contiki-redbee-econotag.a(uip-nd6.o)
 .debug_line    0x00002f8d      0x4be contiki-redbee-econotag.a(sicslowpan.o)
 .debug_line    0x0000344b      0x205 contiki-redbee-econotag.a(neighbor-info.o)
 .debug_line    0x00003650      0x501 contiki-redbee-econotag.a(uip-ds6.o)
 .debug_line    0x00003b51      0x1f1 contiki-redbee-econotag.a(serial-shell.o)
 .debug_line    0x00003d42      0x45d contiki-redbee-econotag.a(shell.o)
 .debug_line    0x0000419f      0x215 contiki-redbee-econotag.a(clock.o)
 .debug_line    0x000043b4      0x1e5 contiki-redbee-econotag.a(button-sensor.o)
 .debug_line    0x00004599      0x1ae contiki-redbee-econotag.a(sensors.o)
 .debug_line    0x00004747       0x93 contiki-redbee-econotag.a(watchdog.o)
 .debug_line    0x000047da      0x16c contiki-redbee-econotag.a(contiki-crm.o)
 .debug_line    0x00004946      0x357 contiki-redbee-econotag.a(contiki-maca.o)
 .debug_line    0x00004c9d      0x1dc contiki-redbee-econotag.a(contiki-misc.o)
 .debug_line    0x00004e79      0x172 contiki-redbee-econotag.a(leds.o)
 .debug_line    0x00004feb       0x5a contiki-redbee-econotag.a(contiki-uart.o)
 .debug_line    0x00005045       0xe3 contiki-redbee-econotag.a(dbg-printf.o)
 .debug_line    0x00005128      0x218 contiki-redbee-econotag.a(strformat.o)
 .debug_line    0x00005340      0x144 contiki-redbee-econotag.a(adc.o)
 .debug_line    0x00005484      0x19b contiki-redbee-econotag.a(gpio-util.o)
 .debug_line    0x0000561f      0x4f2 contiki-redbee-econotag.a(maca.o)
 .debug_line    0x00005b11       0xdc contiki-redbee-econotag.a(nvm.o)
 .debug_line    0x00005bed      0x175 contiki-redbee-econotag.a(uart1.o)
 .debug_line    0x00005d62      0x195 contiki-redbee-econotag.a(default_lowleve)
 .debug_line    0x00005ef7      0x152 contiki-redbee-econotag.a(isr.o)
 .debug_line    0x00006049      0x29b contiki-redbee-econotag.a(rpl-ext-header.)
 .debug_line    0x000062e4      0x1e5 contiki-redbee-econotag.a(frame802154.o)
 .debug_line    0x000064c9      0x2d2 contiki-redbee-econotag.a(rpl.o)
 .debug_line    0x0000679b      0x65e contiki-redbee-econotag.a(rpl-dag.o)
 .debug_line    0x00006df9      0x427 contiki-redbee-econotag.a(rpl-icmp6.o)
 .debug_line    0x00007220      0x27f contiki-redbee-econotag.a(rpl-timers.o)
 .debug_line    0x0000749f      0x2a1 contiki-redbee-econotag.a(rpl-of-etx.o)
 .debug_line    0x00007740      0x143 contiki-redbee-econotag.a(memb.o)
 .debug_line    0x00007883      0x174 contiki-redbee-econotag.a(timer.o)
 .debug_line    0x000079f7      0x142 contiki-redbee-econotag.a(list.o)
 .debug_line    0x00007b39      0x15b contiki-redbee-econotag.a(stimer.o)
 .debug_line    0x00007c94      0x307 contiki-redbee-econotag.a(neighbor-attr.o)
 .debug_line    0x00007f9b       0xf3 contiki-redbee-econotag.a(debug-uart.o)
 .debug_line    0x0000808e      0x154 contiki-redbee-econotag.a(leds-arch.o)
 .debug_line    0x000081e2      0x175 contiki-redbee-econotag.a(uart2.o)

.debug_frame    0x00000000     0x3318
 *(.debug_frame)
 .debug_frame   0x00000000       0x2c th-12.co
 .debug_frame   0x0000002c       0x40 obj_redbee-econotag/shell-th-12.o
 .debug_frame   0x0000006c       0x78 obj_redbee-econotag/sen.o
 .debug_frame   0x000000e4       0xa8 obj_redbee-econotag/contiki-mc1322x-main.o
 .debug_frame   0x0000018c       0x58 contiki-redbee-econotag.a(rimeaddr.o)
 .debug_frame   0x000001e4       0x90 contiki-redbee-econotag.a(nullmac.o)
 .debug_frame   0x00000274       0xd0 contiki-redbee-econotag.a(nullrdc.o)
 .debug_frame   0x00000344       0x28 contiki-redbee-econotag.a(mac.o)
 .debug_frame   0x0000036c       0x84 contiki-redbee-econotag.a(framer-802154.o)
 .debug_frame   0x000003f0      0x148 contiki-redbee-econotag.a(process.o)
 .debug_frame   0x00000538       0x40 contiki-redbee-econotag.a(autostart.o)
 .debug_frame   0x00000578       0x5c contiki-redbee-econotag.a(serial-line.o)
 .debug_frame   0x000005d4      0x148 contiki-redbee-econotag.a(etimer.o)
 .debug_frame   0x0000071c       0xcc contiki-redbee-econotag.a(ctimer.o)
 .debug_frame   0x000007e8       0x40 contiki-redbee-econotag.a(random.o)
 .debug_frame   0x00000828       0x70 contiki-redbee-econotag.a(ringbuf.o)
 .debug_frame   0x00000898      0x1e0 contiki-redbee-econotag.a(packetbuf.o)
 .debug_frame   0x00000a78       0xec contiki-redbee-econotag.a(queuebuf.o)
 .debug_frame   0x00000b64      0x200 contiki-redbee-econotag.a(uip6.o)
 .debug_frame   0x00000d64      0x190 contiki-redbee-econotag.a(tcpip.o)
 .debug_frame   0x00000ef4       0x70 contiki-redbee-econotag.a(uip-icmp6.o)
 .debug_frame   0x00000f64       0x88 contiki-redbee-econotag.a(uip-nd6.o)
 .debug_frame   0x00000fec      0x15c contiki-redbee-econotag.a(sicslowpan.o)
 .debug_frame   0x00001148       0xa4 contiki-redbee-econotag.a(neighbor-info.o)
 .debug_frame   0x000011ec      0x3b4 contiki-redbee-econotag.a(uip-ds6.o)
 .debug_frame   0x000015a0       0x8c contiki-redbee-econotag.a(serial-shell.o)
 .debug_frame   0x0000162c      0x29c contiki-redbee-econotag.a(shell.o)
 .debug_frame   0x000018c8       0xe0 contiki-redbee-econotag.a(clock.o)
 .debug_frame   0x000019a8       0x70 contiki-redbee-econotag.a(button-sensor.o)
 .debug_frame   0x00001a18       0xa4 contiki-redbee-econotag.a(sensors.o)
 .debug_frame   0x00001abc       0x60 contiki-redbee-econotag.a(watchdog.o)
 .debug_frame   0x00001b1c       0x60 contiki-redbee-econotag.a(contiki-crm.o)
 .debug_frame   0x00001b7c      0x124 contiki-redbee-econotag.a(contiki-maca.o)
 .debug_frame   0x00001ca0       0x58 contiki-redbee-econotag.a(contiki-misc.o)
 .debug_frame   0x00001cf8       0xd0 contiki-redbee-econotag.a(leds.o)
 .debug_frame   0x00001dc8       0x20 contiki-redbee-econotag.a(contiki-uart.o)
 .debug_frame   0x00001de8       0x44 contiki-redbee-econotag.a(dbg-printf.o)
 .debug_frame   0x00001e2c       0x9c contiki-redbee-econotag.a(strformat.o)
 .debug_frame   0x00001ec8       0x74 contiki-redbee-econotag.a(adc.o)
 .debug_frame   0x00001f3c       0x90 contiki-redbee-econotag.a(gpio-util.o)
 .debug_frame   0x00001fcc      0x2f0 contiki-redbee-econotag.a(maca.o)
 .debug_frame   0x000022bc       0x58 contiki-redbee-econotag.a(uart1.o)
 .debug_frame   0x00002314       0x68 contiki-redbee-econotag.a(default_lowleve)
 .debug_frame   0x0000237c       0x44 contiki-redbee-econotag.a(isr.o)
 .debug_frame   0x000023c0       0xa0 contiki-redbee-econotag.a(rpl-ext-header.)
 .debug_frame   0x00002460       0xa0 contiki-redbee-econotag.a(frame802154.o)
 .debug_frame   0x00002500       0xd8 contiki-redbee-econotag.a(rpl.o)
 .debug_frame   0x000025d8      0x3bc contiki-redbee-econotag.a(rpl-dag.o)
 .debug_frame   0x00002994       0xe4 contiki-redbee-econotag.a(rpl-icmp6.o)
 .debug_frame   0x00002a78       0xc8 contiki-redbee-econotag.a(rpl-timers.o)
 .debug_frame   0x00002b40       0xb0 contiki-redbee-econotag.a(rpl-of-etx.o)
 .debug_frame   0x00002bf0       0x74 contiki-redbee-econotag.a(memb.o)
 .debug_frame   0x00002c64       0x84 contiki-redbee-econotag.a(timer.o)
 .debug_frame   0x00002ce8      0x120 contiki-redbee-econotag.a(list.o)
 .debug_frame   0x00002e08       0x9c contiki-redbee-econotag.a(stimer.o)
 .debug_frame   0x00002ea4      0x158 contiki-redbee-econotag.a(neighbor-attr.o)
 .debug_frame   0x00002ffc       0x2c contiki-redbee-econotag.a(debug-uart.o)
 .debug_frame   0x00003028       0x50 contiki-redbee-econotag.a(leds-arch.o)
 .debug_frame   0x00003078       0x58 contiki-redbee-econotag.a(uart2.o)
 .debug_frame   0x000030d0       0x20 /home/muffin/redwire/arm-2008q3/bin/../lib/gcc/arm-none-eabi/4.3.2/libgcc.a(_udivsi3.o)
 .debug_frame   0x000030f0       0x20 /home/muffin/redwire/arm-2008q3/bin/../lib/gcc/arm-none-eabi/4.3.2/libgcc.a(_divsi3.o)
 .debug_frame   0x00003110       0x58 /home/muffin/redwire/arm-2008q3/bin/../lib/gcc/arm-none-eabi/4.3.2/libgcc.a(bpabi.o)
 .debug_frame   0x00003168       0x38 /home/muffin/redwire/arm-2008q3/bin/../lib/gcc/arm-none-eabi/4.3.2/libgcc.a(_divdi3.o)
 .debug_frame   0x000031a0       0x38 /home/muffin/redwire/arm-2008q3/bin/../lib/gcc/arm-none-eabi/4.3.2/libgcc.a(_udivdi3.o)
 .debug_frame   0x000031d8       0x2c /home/muffin/redwire/arm-2008q3/bin/../lib/gcc/arm-none-eabi/4.3.2/../../../../arm-none-eabi/lib/libc.a(lib_a-memcmp.o)
 .debug_frame   0x00003204       0x2c /home/muffin/redwire/arm-2008q3/bin/../lib/gcc/arm-none-eabi/4.3.2/../../../../arm-none-eabi/lib/libc.a(lib_a-memcpy.o)
 .debug_frame   0x00003230       0x2c /home/muffin/redwire/arm-2008q3/bin/../lib/gcc/arm-none-eabi/4.3.2/../../../../arm-none-eabi/lib/libc.a(lib_a-memmove.o)
 .debug_frame   0x0000325c       0x28 /home/muffin/redwire/arm-2008q3/bin/../lib/gcc/arm-none-eabi/4.3.2/../../../../arm-none-eabi/lib/libc.a(lib_a-memset.o)
 .debug_frame   0x00003284       0x28 /home/muffin/redwire/arm-2008q3/bin/../lib/gcc/arm-none-eabi/4.3.2/../../../../arm-none-eabi/lib/libc.a(lib_a-strchr.o)
 .debug_frame   0x000032ac       0x20 /home/muffin/redwire/arm-2008q3/bin/../lib/gcc/arm-none-eabi/4.3.2/../../../../arm-none-eabi/lib/libc.a(lib_a-strcmp.o)
 .debug_frame   0x000032cc       0x20 /home/muffin/redwire/arm-2008q3/bin/../lib/gcc/arm-none-eabi/4.3.2/../../../../arm-none-eabi/lib/libc.a(lib_a-strlen.o)
 .debug_frame   0x000032ec       0x2c /home/muffin/redwire/arm-2008q3/bin/../lib/gcc/arm-none-eabi/4.3.2/../../../../arm-none-eabi/lib/libc.a(lib_a-strncmp.o)

.debug_str      0x00000000     0x8486
 *(.debug_str)
 .debug_str     0x00000000     0x357c th-12.co
                               0x3a0d (size before relaxing)
 .debug_str     0x0000357c       0x6d obj_redbee-econotag/shell-th-12.o
                               0x39ff (size before relaxing)
 .debug_str     0x000035e9      0x5d5 obj_redbee-econotag/sen.o
                               0x3f57 (size before relaxing)
 .debug_str     0x00003bbe      0x4b8 obj_redbee-econotag/contiki-mc1322x-main.o
                               0x3f54 (size before relaxing)
 .debug_str     0x00004076       0x74 contiki-redbee-econotag.a(rimeaddr.o)
                                0x6f4 (size before relaxing)
 .debug_str     0x000040ea       0x48 contiki-redbee-econotag.a(nullmac.o)
                                0x7c9 (size before relaxing)
 .debug_str     0x00004132      0x3ee contiki-redbee-econotag.a(nullrdc.o)
                                0xc04 (size before relaxing)
 .debug_str     0x00004520       0x3b contiki-redbee-econotag.a(mac.o)
                                0x709 (size before relaxing)
 .debug_str     0x0000455b      0x19a contiki-redbee-econotag.a(framer-802154.o)
                                0xbc5 (size before relaxing)
 .debug_str     0x000046f5      0x15f contiki-redbee-econotag.a(process.o)
                                0x83c (size before relaxing)
 .debug_str     0x00004854       0x3e contiki-redbee-econotag.a(autostart.o)
                                0x6f4 (size before relaxing)
 .debug_str     0x00004892       0xbd contiki-redbee-econotag.a(serial-line.o)
                                0x7b3 (size before relaxing)
 .debug_str     0x0000494f      0x137 contiki-redbee-econotag.a(etimer.o)
                                0x849 (size before relaxing)
 .debug_str     0x00004a86       0xbf contiki-redbee-econotag.a(ctimer.o)
                                0x7dd (size before relaxing)
 .debug_str     0x00004b45       0x39 contiki-redbee-econotag.a(random.o)
                                0x698 (size before relaxing)
 .debug_str     0x00004b7e       0x60 contiki-redbee-econotag.a(ringbuf.o)
                                0x6f1 (size before relaxing)
 .debug_str     0x00004bde      0x1e3 contiki-redbee-econotag.a(packetbuf.o)
                                0xbba (size before relaxing)
 .debug_str     0x00004dc1      0x18e contiki-redbee-econotag.a(queuebuf.o)
                                0xb88 (size before relaxing)
 .debug_str     0x00004f4f      0x48a contiki-redbee-econotag.a(uip6.o)
                                0xd49 (size before relaxing)
 .debug_str     0x000053d9      0x241 contiki-redbee-econotag.a(tcpip.o)
                                0xce0 (size before relaxing)
 .debug_str     0x0000561a       0x90 contiki-redbee-econotag.a(uip-icmp6.o)
                                0x8f6 (size before relaxing)
 .debug_str     0x000056aa      0x116 contiki-redbee-econotag.a(uip-nd6.o)
                                0xa0a (size before relaxing)
 .debug_str     0x000057c0      0x2de contiki-redbee-econotag.a(sicslowpan.o)
                                0xf48 (size before relaxing)
 .debug_str     0x00005a9e      0x164 contiki-redbee-econotag.a(neighbor-info.o)
                                0xb93 (size before relaxing)
 .debug_str     0x00005c02      0x460 contiki-redbee-econotag.a(uip-ds6.o)
                                0xe09 (size before relaxing)
 .debug_str     0x00006062       0xa4 contiki-redbee-econotag.a(serial-shell.o)
                                0x818 (size before relaxing)
 .debug_str     0x00006106      0x382 contiki-redbee-econotag.a(shell.o)
                                0xbe6 (size before relaxing)
 .debug_str     0x00006488       0xcc contiki-redbee-econotag.a(clock.o)
                               0x39f4 (size before relaxing)
 .debug_str     0x00006554       0x4c contiki-redbee-econotag.a(button-sensor.o)
                               0x3921 (size before relaxing)
 .debug_str     0x000065a0       0x9f contiki-redbee-econotag.a(sensors.o)
                                0x7c8 (size before relaxing)
 .debug_str     0x0000663f       0x70 contiki-redbee-econotag.a(watchdog.o)
                                 0x97 (size before relaxing)
 .debug_str     0x000066af       0x60 contiki-redbee-econotag.a(contiki-crm.o)
                               0x38ec (size before relaxing)
 .debug_str     0x0000670f      0x1d8 contiki-redbee-econotag.a(contiki-maca.o)
                               0x3f7c (size before relaxing)
 .debug_str     0x000068e7       0x68 contiki-redbee-econotag.a(contiki-misc.o)
                               0x38f1 (size before relaxing)
 .debug_str     0x0000694f       0x70 contiki-redbee-econotag.a(leds.o)
                                0x6de (size before relaxing)
 .debug_str     0x000069bf       0x37 contiki-redbee-econotag.a(contiki-uart.o)
                                 0x86 (size before relaxing)
 .debug_str     0x000069f6       0xa7 contiki-redbee-econotag.a(dbg-printf.o)
                                0x175 (size before relaxing)
 .debug_str     0x00006a9d      0x12b contiki-redbee-econotag.a(strformat.o)
                                0x230 (size before relaxing)
 .debug_str     0x00006bc8       0x48 contiki-redbee-econotag.a(adc.o)
                                0x90b (size before relaxing)
 .debug_str     0x00006c10       0xa8 contiki-redbee-econotag.a(gpio-util.o)
                               0x3935 (size before relaxing)
 .debug_str     0x00006cb8      0x6e5 contiki-redbee-econotag.a(maca.o)
                               0x4249 (size before relaxing)
 .debug_str     0x0000739d       0x2a contiki-redbee-econotag.a(nvm.o)
                                0x2a0 (size before relaxing)
 .debug_str     0x000073c7       0x8c contiki-redbee-econotag.a(uart1.o)
                               0x3924 (size before relaxing)
 .debug_str     0x00007453       0x86 contiki-redbee-econotag.a(default_lowleve)
                               0x39c8 (size before relaxing)
 .debug_str     0x000074d9       0x47 contiki-redbee-econotag.a(isr.o)
                               0x3963 (size before relaxing)
 .debug_str     0x00007520      0x32d contiki-redbee-econotag.a(rpl-ext-header.)
                                0xbd7 (size before relaxing)
 .debug_str     0x0000784d       0xce contiki-redbee-econotag.a(frame802154.o)
                                0x8ae (size before relaxing)
 .debug_str     0x0000791b       0xd1 contiki-redbee-econotag.a(rpl.o)
                                0xc74 (size before relaxing)
 .debug_str     0x000079ec      0x3cd contiki-redbee-econotag.a(rpl-dag.o)
                                0xee6 (size before relaxing)
 .debug_str     0x00007db9      0x11f contiki-redbee-econotag.a(rpl-icmp6.o)
                               0x116b (size before relaxing)
 .debug_str     0x00007ed8       0xc0 contiki-redbee-econotag.a(rpl-timers.o)
                                0xb10 (size before relaxing)
 .debug_str     0x00007f98       0x8a contiki-redbee-econotag.a(rpl-of-etx.o)
                                0xb34 (size before relaxing)
 .debug_str     0x00008022       0x4a contiki-redbee-econotag.a(memb.o)
                                0x6b9 (size before relaxing)
 .debug_str     0x0000806c       0x1b contiki-redbee-econotag.a(timer.o)
                                0x6de (size before relaxing)
 .debug_str     0x00008087       0xac contiki-redbee-econotag.a(list.o)
                                 0xee (size before relaxing)
 .debug_str     0x00008133       0x72 contiki-redbee-econotag.a(stimer.o)
                                0x6e2 (size before relaxing)
 .debug_str     0x000081a5      0x1e8 contiki-redbee-econotag.a(neighbor-attr.o)
                                0x98a (size before relaxing)
 .debug_str     0x0000838d       0x34 contiki-redbee-econotag.a(debug-uart.o)
                                0x68e (size before relaxing)
 .debug_str     0x000083c1       0x4f contiki-redbee-econotag.a(leds-arch.o)
                               0x3d89 (size before relaxing)
 .debug_str     0x00008410       0x76 contiki-redbee-econotag.a(uart2.o)
                               0x3924 (size before relaxing)

.debug_loc      0x00000000     0xadef
 *(.debug_loc)
 .debug_loc     0x00000000       0x79 th-12.co
 .debug_loc     0x00000079       0x98 obj_redbee-econotag/shell-th-12.o
 .debug_loc     0x00000111       0xf7 obj_redbee-econotag/sen.o
 .debug_loc     0x00000208      0x19d obj_redbee-econotag/contiki-mc1322x-main.o
 .debug_loc     0x000003a5       0xc2 contiki-redbee-econotag.a(rimeaddr.o)
 .debug_loc     0x00000467       0xb5 contiki-redbee-econotag.a(nullmac.o)
 .debug_loc     0x0000051c      0x1f4 contiki-redbee-econotag.a(nullrdc.o)
 .debug_loc     0x00000710       0xb8 contiki-redbee-econotag.a(mac.o)
 .debug_loc     0x000007c8       0xec contiki-redbee-econotag.a(framer-802154.o)
 .debug_loc     0x000008b4      0x3c7 contiki-redbee-econotag.a(process.o)
 .debug_loc     0x00000c7b       0x7a contiki-redbee-econotag.a(autostart.o)
 .debug_loc     0x00000cf5      0x177 contiki-redbee-econotag.a(serial-line.o)
 .debug_loc     0x00000e6c      0x407 contiki-redbee-econotag.a(etimer.o)
 .debug_loc     0x00001273      0x303 contiki-redbee-econotag.a(ctimer.o)
 .debug_loc     0x00001576       0x51 contiki-redbee-econotag.a(random.o)
 .debug_loc     0x000015c7       0xdc contiki-redbee-econotag.a(ringbuf.o)
 .debug_loc     0x000016a3      0x31d contiki-redbee-econotag.a(packetbuf.o)
 .debug_loc     0x000019c0      0x214 contiki-redbee-econotag.a(queuebuf.o)
 .debug_loc     0x00001bd4      0x5e1 contiki-redbee-econotag.a(uip6.o)
 .debug_loc     0x000021b5      0x58c contiki-redbee-econotag.a(tcpip.o)
 .debug_loc     0x00002741      0x164 contiki-redbee-econotag.a(uip-icmp6.o)
 .debug_loc     0x000028a5      0x1ca contiki-redbee-econotag.a(uip-nd6.o)
 .debug_loc     0x00002a6f      0x7be contiki-redbee-econotag.a(sicslowpan.o)
 .debug_loc     0x0000322d      0x229 contiki-redbee-econotag.a(neighbor-info.o)
 .debug_loc     0x00003456      0xcb8 contiki-redbee-econotag.a(uip-ds6.o)
 .debug_loc     0x0000410e      0x1dc contiki-redbee-econotag.a(serial-shell.o)
 .debug_loc     0x000042ea      0xbc1 contiki-redbee-econotag.a(shell.o)
 .debug_loc     0x00004eab      0x1b1 contiki-redbee-econotag.a(clock.o)
 .debug_loc     0x0000505c       0xff contiki-redbee-econotag.a(button-sensor.o)
 .debug_loc     0x0000515b      0x212 contiki-redbee-econotag.a(sensors.o)
 .debug_loc     0x0000536d       0x70 contiki-redbee-econotag.a(contiki-crm.o)
 .debug_loc     0x000053dd      0x2a8 contiki-redbee-econotag.a(contiki-maca.o)
 .debug_loc     0x00005685       0x50 contiki-redbee-econotag.a(contiki-misc.o)
 .debug_loc     0x000056d5      0x16a contiki-redbee-econotag.a(leds.o)
 .debug_loc     0x0000583f       0xd0 contiki-redbee-econotag.a(dbg-printf.o)
 .debug_loc     0x0000590f      0xcef contiki-redbee-econotag.a(strformat.o)
 .debug_loc     0x000065fe       0x9a contiki-redbee-econotag.a(adc.o)
 .debug_loc     0x00006698      0x161 contiki-redbee-econotag.a(gpio-util.o)
 .debug_loc     0x000067f9      0xe00 contiki-redbee-econotag.a(maca.o)
 .debug_loc     0x000075f9       0xd5 contiki-redbee-econotag.a(uart1.o)
 .debug_loc     0x000076ce      0x1a6 contiki-redbee-econotag.a(default_lowleve)
 .debug_loc     0x00007874       0x1f contiki-redbee-econotag.a(isr.o)
 .debug_loc     0x00007893      0x1bd contiki-redbee-econotag.a(rpl-ext-header.)
 .debug_loc     0x00007a50      0x29e contiki-redbee-econotag.a(frame802154.o)
 .debug_loc     0x00007cee      0x36c contiki-redbee-econotag.a(rpl.o)
 .debug_loc     0x0000805a     0x1422 contiki-redbee-econotag.a(rpl-dag.o)
 .debug_loc     0x0000947c      0x82d contiki-redbee-econotag.a(rpl-icmp6.o)
 .debug_loc     0x00009ca9      0x1c9 contiki-redbee-econotag.a(rpl-timers.o)
 .debug_loc     0x00009e72      0x26e contiki-redbee-econotag.a(rpl-of-etx.o)
 .debug_loc     0x0000a0e0      0x16c contiki-redbee-econotag.a(memb.o)
 .debug_loc     0x0000a24c       0xfc contiki-redbee-econotag.a(timer.o)
 .debug_loc     0x0000a348      0x328 contiki-redbee-econotag.a(list.o)
 .debug_loc     0x0000a670      0x139 contiki-redbee-econotag.a(stimer.o)
 .debug_loc     0x0000a7a9      0x4a7 contiki-redbee-econotag.a(neighbor-attr.o)
 .debug_loc     0x0000ac50       0x79 contiki-redbee-econotag.a(debug-uart.o)
 .debug_loc     0x0000acc9       0x51 contiki-redbee-econotag.a(leds-arch.o)
 .debug_loc     0x0000ad1a       0xd5 contiki-redbee-econotag.a(uart2.o)

.debug_macinfo
 *(.debug_macinfo)

.debug_weaknames
 *(.debug_weaknames)

.debug_funcnames
 *(.debug_funcnames)

.debug_typenames
 *(.debug_typenames)

.debug_varnames
 *(.debug_varnames)

.debug_pubtypes
 *(.debug_pubtypes)

.debug_ranges   0x00000000     0x1698
 *(.debug_ranges)
 .debug_ranges  0x00000000       0x30 th-12.co
 .debug_ranges  0x00000030       0x40 obj_redbee-econotag/shell-th-12.o
 .debug_ranges  0x00000070       0x30 obj_redbee-econotag/sen.o
 .debug_ranges  0x000000a0       0x40 obj_redbee-econotag/contiki-mc1322x-main.o
 .debug_ranges  0x000000e0       0x28 contiki-redbee-econotag.a(rimeaddr.o)
 .debug_ranges  0x00000108       0x40 contiki-redbee-econotag.a(nullmac.o)
 .debug_ranges  0x00000148       0x50 contiki-redbee-econotag.a(nullrdc.o)
 .debug_ranges  0x00000198       0x18 contiki-redbee-econotag.a(mac.o)
 .debug_ranges  0x000001b0       0x38 contiki-redbee-econotag.a(framer-802154.o)
 .debug_ranges  0x000001e8       0x78 contiki-redbee-econotag.a(process.o)
 .debug_ranges  0x00000260       0x20 contiki-redbee-econotag.a(autostart.o)
 .debug_ranges  0x00000280       0x40 contiki-redbee-econotag.a(serial-line.o)
 .debug_ranges  0x000002c0       0x80 contiki-redbee-econotag.a(etimer.o)
 .debug_ranges  0x00000340       0x60 contiki-redbee-econotag.a(ctimer.o)
 .debug_ranges  0x000003a0       0x20 contiki-redbee-econotag.a(random.o)
 .debug_ranges  0x000003c0       0x38 contiki-redbee-econotag.a(ringbuf.o)
 .debug_ranges  0x000003f8       0xb8 contiki-redbee-econotag.a(packetbuf.o)
 .debug_ranges  0x000004b0       0x60 contiki-redbee-econotag.a(queuebuf.o)
 .debug_ranges  0x00000510       0xa8 contiki-redbee-econotag.a(uip6.o)
 .debug_ranges  0x000005b8       0xc8 contiki-redbee-econotag.a(tcpip.o)
 .debug_ranges  0x00000680       0x28 contiki-redbee-econotag.a(uip-icmp6.o)
 .debug_ranges  0x000006a8       0x30 contiki-redbee-econotag.a(uip-nd6.o)
 .debug_ranges  0x000006d8      0x1c8 contiki-redbee-econotag.a(sicslowpan.o)
 .debug_ranges  0x000008a0       0x60 contiki-redbee-econotag.a(neighbor-info.o)
 .debug_ranges  0x00000900      0x120 contiki-redbee-econotag.a(uip-ds6.o)
 .debug_ranges  0x00000a20       0x50 contiki-redbee-econotag.a(serial-shell.o)
 .debug_ranges  0x00000a70      0x170 contiki-redbee-econotag.a(shell.o)
 .debug_ranges  0x00000be0       0x58 contiki-redbee-econotag.a(clock.o)
 .debug_ranges  0x00000c38       0x30 contiki-redbee-econotag.a(button-sensor.o)
 .debug_ranges  0x00000c68       0x58 contiki-redbee-econotag.a(sensors.o)
 .debug_ranges  0x00000cc0       0x38 contiki-redbee-econotag.a(watchdog.o)
 .debug_ranges  0x00000cf8       0x28 contiki-redbee-econotag.a(contiki-crm.o)
 .debug_ranges  0x00000d20       0x98 contiki-redbee-econotag.a(contiki-maca.o)
 .debug_ranges  0x00000db8       0x30 contiki-redbee-econotag.a(contiki-misc.o)
 .debug_ranges  0x00000de8       0x50 contiki-redbee-econotag.a(leds.o)
 .debug_ranges  0x00000e38       0x18 contiki-redbee-econotag.a(contiki-uart.o)
 .debug_ranges  0x00000e50       0x20 contiki-redbee-econotag.a(dbg-printf.o)
 .debug_ranges  0x00000e70       0x38 contiki-redbee-econotag.a(strformat.o)
 .debug_ranges  0x00000ea8       0x30 contiki-redbee-econotag.a(adc.o)
 .debug_ranges  0x00000ed8       0x48 contiki-redbee-econotag.a(gpio-util.o)
 .debug_ranges  0x00000f20      0x108 contiki-redbee-econotag.a(maca.o)
 .debug_ranges  0x00001028       0x28 contiki-redbee-econotag.a(uart1.o)
 .debug_ranges  0x00001050       0x28 contiki-redbee-econotag.a(default_lowleve)
 .debug_ranges  0x00001078       0x20 contiki-redbee-econotag.a(isr.o)
 .debug_ranges  0x00001098       0x38 contiki-redbee-econotag.a(rpl-ext-header.)
 .debug_ranges  0x000010d0       0x38 contiki-redbee-econotag.a(frame802154.o)
 .debug_ranges  0x00001108       0x48 contiki-redbee-econotag.a(rpl.o)
 .debug_ranges  0x00001150      0x168 contiki-redbee-econotag.a(rpl-dag.o)
 .debug_ranges  0x000012b8      0x158 contiki-redbee-econotag.a(rpl-icmp6.o)
 .debug_ranges  0x00001410       0x48 contiki-redbee-econotag.a(rpl-timers.o)
 .debug_ranges  0x00001458       0x48 contiki-redbee-econotag.a(rpl-of-etx.o)
 .debug_ranges  0x000014a0       0x30 contiki-redbee-econotag.a(memb.o)
 .debug_ranges  0x000014d0       0x38 contiki-redbee-econotag.a(timer.o)
 .debug_ranges  0x00001508       0x70 contiki-redbee-econotag.a(list.o)
 .debug_ranges  0x00001578       0x40 contiki-redbee-econotag.a(stimer.o)
 .debug_ranges  0x000015b8       0x78 contiki-redbee-econotag.a(neighbor-attr.o)
 .debug_ranges  0x00001630       0x18 contiki-redbee-econotag.a(debug-uart.o)
 .debug_ranges  0x00001648       0x28 contiki-redbee-econotag.a(leds-arch.o)
 .debug_ranges  0x00001670       0x28 contiki-redbee-econotag.a(uart2.o)

.gnu.attributes
 *(.gnu.attributes)

.note.gnu.arm.ident
 *(.note.gnu.arm.ident)

/DISCARD/
 *(.note.GNU-stack)
 *(.gnu_debuglink)
OUTPUT(th-12.elf elf32-littlearm)

.ARM.attributes
                0x00000000       0x32
 .ARM.attributes
                0x00000000       0x30 th-12.co
 .ARM.attributes
                0x00000030       0x32 obj_redbee-econotag/shell-th-12.o
 .ARM.attributes
                0x00000062       0x32 obj_redbee-econotag/sen.o
 .ARM.attributes
                0x00000094       0x32 obj_redbee-econotag/contiki-mc1322x-main.o
 .ARM.attributes
                0x000000c6       0x1a obj_redbee-econotag/start.o
 .ARM.attributes
                0x000000e0       0x32 contiki-redbee-econotag.a(rimeaddr.o)
 .ARM.attributes
                0x00000112       0x30 contiki-redbee-econotag.a(nullmac.o)
 .ARM.attributes
                0x00000142       0x30 contiki-redbee-econotag.a(nullrdc.o)
 .ARM.attributes
                0x00000172       0x32 contiki-redbee-econotag.a(mac.o)
 .ARM.attributes
                0x000001a4       0x30 contiki-redbee-econotag.a(framer-802154.o)
 .ARM.attributes
                0x000001d4       0x32 contiki-redbee-econotag.a(process.o)
 .ARM.attributes
                0x00000206       0x32 contiki-redbee-econotag.a(autostart.o)
 .ARM.attributes
                0x00000238       0x32 contiki-redbee-econotag.a(serial-line.o)
 .ARM.attributes
                0x0000026a       0x32 contiki-redbee-econotag.a(etimer.o)
 .ARM.attributes
                0x0000029c       0x32 contiki-redbee-econotag.a(ctimer.o)
 .ARM.attributes
                0x000002ce       0x32 contiki-redbee-econotag.a(random.o)
 .ARM.attributes
                0x00000300       0x32 contiki-redbee-econotag.a(ringbuf.o)
 .ARM.attributes
                0x00000332       0x32 contiki-redbee-econotag.a(packetbuf.o)
 .ARM.attributes
                0x00000364       0x32 contiki-redbee-econotag.a(queuebuf.o)
 .ARM.attributes
                0x00000396       0x32 contiki-redbee-econotag.a(uip6.o)
 .ARM.attributes
                0x000003c8       0x32 contiki-redbee-econotag.a(tcpip.o)
 .ARM.attributes
                0x000003fa       0x32 contiki-redbee-econotag.a(uip-icmp6.o)
 .ARM.attributes
                0x0000042c       0x32 contiki-redbee-econotag.a(uip-nd6.o)
 .ARM.attributes
                0x0000045e       0x32 contiki-redbee-econotag.a(sicslowpan.o)
 .ARM.attributes
                0x00000490       0x32 contiki-redbee-econotag.a(neighbor-info.o)
 .ARM.attributes
                0x000004c2       0x32 contiki-redbee-econotag.a(uip-ds6.o)
 .ARM.attributes
                0x000004f4       0x32 contiki-redbee-econotag.a(serial-shell.o)
 .ARM.attributes
                0x00000526       0x32 contiki-redbee-econotag.a(shell.o)
 .ARM.attributes
                0x00000558       0x32 contiki-redbee-econotag.a(clock.o)
 .ARM.attributes
                0x0000058a       0x32 contiki-redbee-econotag.a(button-sensor.o)
 .ARM.attributes
                0x000005bc       0x32 contiki-redbee-econotag.a(sensors.o)
 .ARM.attributes
                0x000005ee       0x32 contiki-redbee-econotag.a(watchdog.o)
 .ARM.attributes
                0x00000620       0x32 contiki-redbee-econotag.a(contiki-crm.o)
 .ARM.attributes
                0x00000652       0x32 contiki-redbee-econotag.a(contiki-maca.o)
 .ARM.attributes
                0x00000684       0x32 contiki-redbee-econotag.a(contiki-misc.o)
 .ARM.attributes
                0x000006b6       0x32 contiki-redbee-econotag.a(leds.o)
 .ARM.attributes
                0x000006e8       0x32 contiki-redbee-econotag.a(contiki-uart.o)
 .ARM.attributes
                0x0000071a       0x32 contiki-redbee-econotag.a(dbg-printf.o)
 .ARM.attributes
                0x0000074c       0x32 contiki-redbee-econotag.a(strformat.o)
 .ARM.attributes
                0x0000077e       0x32 contiki-redbee-econotag.a(adc.o)
 .ARM.attributes
                0x000007b0       0x32 contiki-redbee-econotag.a(gpio-util.o)
 .ARM.attributes
                0x000007e2       0x32 contiki-redbee-econotag.a(maca.o)
 .ARM.attributes
                0x00000814       0x2e contiki-redbee-econotag.a(nvm.o)
 .ARM.attributes
                0x00000842       0x32 contiki-redbee-econotag.a(uart1.o)
 .ARM.attributes
                0x00000874       0x32 contiki-redbee-econotag.a(default_lowleve)
 .ARM.attributes
                0x000008a6       0x30 contiki-redbee-econotag.a(isr.o)
 .ARM.attributes
                0x000008d6       0x32 contiki-redbee-econotag.a(rpl-ext-header.)
 .ARM.attributes
                0x00000908       0x32 contiki-redbee-econotag.a(frame802154.o)
 .ARM.attributes
                0x0000093a       0x32 contiki-redbee-econotag.a(rpl.o)
 .ARM.attributes
                0x0000096c       0x32 contiki-redbee-econotag.a(rpl-dag.o)
 .ARM.attributes
                0x0000099e       0x32 contiki-redbee-econotag.a(rpl-icmp6.o)
 .ARM.attributes
                0x000009d0       0x32 contiki-redbee-econotag.a(rpl-timers.o)
 .ARM.attributes
                0x00000a02       0x30 contiki-redbee-econotag.a(rpl-of-etx.o)
 .ARM.attributes
                0x00000a32       0x32 contiki-redbee-econotag.a(memb.o)
 .ARM.attributes
                0x00000a64       0x32 contiki-redbee-econotag.a(timer.o)
 .ARM.attributes
                0x00000a96       0x32 contiki-redbee-econotag.a(list.o)
 .ARM.attributes
                0x00000ac8       0x32 contiki-redbee-econotag.a(stimer.o)
 .ARM.attributes
                0x00000afa       0x32 contiki-redbee-econotag.a(neighbor-attr.o)
 .ARM.attributes
                0x00000b2c       0x32 contiki-redbee-econotag.a(debug-uart.o)
 .ARM.attributes
                0x00000b5e       0x32 contiki-redbee-econotag.a(leds-arch.o)
 .ARM.attributes
                0x00000b90       0x32 contiki-redbee-econotag.a(uart2.o)
 .ARM.attributes
                0x00000bc2       0x14 /home/muffin/redwire/arm-2008q3/bin/../lib/gcc/arm-none-eabi/4.3.2/libgcc.a(_udivsi3.o)
 .ARM.attributes
                0x00000bd6       0x14 /home/muffin/redwire/arm-2008q3/bin/../lib/gcc/arm-none-eabi/4.3.2/libgcc.a(_divsi3.o)
 .ARM.attributes
                0x00000bea       0x14 /home/muffin/redwire/arm-2008q3/bin/../lib/gcc/arm-none-eabi/4.3.2/libgcc.a(_dvmd_tls.o)
 .ARM.attributes
                0x00000bfe       0x14 /home/muffin/redwire/arm-2008q3/bin/../lib/gcc/arm-none-eabi/4.3.2/libgcc.a(_aeabi_uldivmod.o)
 .ARM.attributes
                0x00000c12       0x2e /home/muffin/redwire/arm-2008q3/bin/../lib/gcc/arm-none-eabi/4.3.2/libgcc.a(bpabi.o)
 .ARM.attributes
                0x00000c40       0x2e /home/muffin/redwire/arm-2008q3/bin/../lib/gcc/arm-none-eabi/4.3.2/libgcc.a(_divdi3.o)
 .ARM.attributes
                0x00000c6e       0x2e /home/muffin/redwire/arm-2008q3/bin/../lib/gcc/arm-none-eabi/4.3.2/libgcc.a(_udivdi3.o)
 .ARM.attributes
                0x00000c9c       0x2c /home/muffin/redwire/arm-2008q3/bin/../lib/gcc/arm-none-eabi/4.3.2/libgcc.a(_clz.o)
 .ARM.attributes
                0x00000cc8       0x2c /home/muffin/redwire/arm-2008q3/bin/../lib/gcc/arm-none-eabi/4.3.2/../../../../arm-none-eabi/lib/libc.a(lib_a-ctype_.o)
 .ARM.attributes
                0x00000cf4       0x2e /home/muffin/redwire/arm-2008q3/bin/../lib/gcc/arm-none-eabi/4.3.2/../../../../arm-none-eabi/lib/libc.a(lib_a-memcmp.o)
 .ARM.attributes
                0x00000d22       0x2e /home/muffin/redwire/arm-2008q3/bin/../lib/gcc/arm-none-eabi/4.3.2/../../../../arm-none-eabi/lib/libc.a(lib_a-memcpy.o)
 .ARM.attributes
                0x00000d50       0x2e /home/muffin/redwire/arm-2008q3/bin/../lib/gcc/arm-none-eabi/4.3.2/../../../../arm-none-eabi/lib/libc.a(lib_a-memmove.o)
 .ARM.attributes
                0x00000d7e       0x2e /home/muffin/redwire/arm-2008q3/bin/../lib/gcc/arm-none-eabi/4.3.2/../../../../arm-none-eabi/lib/libc.a(lib_a-memset.o)
 .ARM.attributes
                0x00000dac       0x2e /home/muffin/redwire/arm-2008q3/bin/../lib/gcc/arm-none-eabi/4.3.2/../../../../arm-none-eabi/lib/libc.a(lib_a-strchr.o)
 .ARM.attributes
                0x00000dda       0x2e /home/muffin/redwire/arm-2008q3/bin/../lib/gcc/arm-none-eabi/4.3.2/../../../../arm-none-eabi/lib/libc.a(lib_a-strcmp.o)
 .ARM.attributes
                0x00000e08       0x2e /home/muffin/redwire/arm-2008q3/bin/../lib/gcc/arm-none-eabi/4.3.2/../../../../arm-none-eabi/lib/libc.a(lib_a-strlen.o)
 .ARM.attributes
                0x00000e36       0x2e /home/muffin/redwire/arm-2008q3/bin/../lib/gcc/arm-none-eabi/4.3.2/../../../../arm-none-eabi/lib/libc.a(lib_a-strncmp.o)
